
rv64ud-v-move:     file format elf64-littleriscv


Disassembly of section .text.init:

0000000080000000 <_start>:
    80000000:	00c0006f          	j	8000000c <handle_reset>

0000000080000004 <nmi_vector>:
    80000004:	2c80206f          	j	800022cc <wtf>

0000000080000008 <trap_vector>:
    80000008:	2c40206f          	j	800022cc <wtf>

000000008000000c <handle_reset>:
    8000000c:	00000093          	li	ra,0
    80000010:	00000113          	li	sp,0
    80000014:	00000193          	li	gp,0
    80000018:	00000213          	li	tp,0
    8000001c:	00000293          	li	t0,0
    80000020:	00000313          	li	t1,0
    80000024:	00000393          	li	t2,0
    80000028:	00000413          	li	s0,0
    8000002c:	00000493          	li	s1,0
    80000030:	00000513          	li	a0,0
    80000034:	00000593          	li	a1,0
    80000038:	00000613          	li	a2,0
    8000003c:	00000693          	li	a3,0
    80000040:	00000713          	li	a4,0
    80000044:	00000793          	li	a5,0
    80000048:	00000813          	li	a6,0
    8000004c:	00000893          	li	a7,0
    80000050:	00000913          	li	s2,0
    80000054:	00000993          	li	s3,0
    80000058:	00000a13          	li	s4,0
    8000005c:	00000a93          	li	s5,0
    80000060:	00000b13          	li	s6,0
    80000064:	00000b93          	li	s7,0
    80000068:	00000c13          	li	s8,0
    8000006c:	00000c93          	li	s9,0
    80000070:	00000d13          	li	s10,0
    80000074:	00000d93          	li	s11,0
    80000078:	00000e13          	li	t3,0
    8000007c:	00000e93          	li	t4,0
    80000080:	00000f13          	li	t5,0
    80000084:	00000f93          	li	t6,0
    80000088:	00000297          	auipc	t0,0x0
    8000008c:	01028293          	addi	t0,t0,16 # 80000098 <handle_reset+0x8c>
    80000090:	30529073          	csrw	mtvec,t0
    80000094:	74445073          	csrwi	0x744,8
    80000098:	00000297          	auipc	t0,0x0
    8000009c:	f7028293          	addi	t0,t0,-144 # 80000008 <trap_vector>
    800000a0:	30529073          	csrw	mtvec,t0
    800000a4:	0000d117          	auipc	sp,0xd
    800000a8:	e3c10113          	addi	sp,sp,-452 # 8000cee0 <freelist_head+0x3ed8>
    800000ac:	f14022f3          	csrr	t0,mhartid
    800000b0:	00c29293          	slli	t0,t0,0xc
    800000b4:	00510133          	add	sp,sp,t0
    800000b8:	34011073          	csrw	mscratch,sp
    800000bc:	125020ef          	jal	ra,800029e0 <extra_boot>
    800000c0:	00003517          	auipc	a0,0x3
    800000c4:	93450513          	addi	a0,a0,-1740 # 800029f4 <userstart>
    800000c8:	71c0206f          	j	800027e4 <vm_boot>

00000000800000cc <pop_tf>:
    800000cc:	10853283          	ld	t0,264(a0)
    800000d0:	14129073          	csrw	sepc,t0
    800000d4:	00853083          	ld	ra,8(a0)
    800000d8:	01053103          	ld	sp,16(a0)
    800000dc:	01853183          	ld	gp,24(a0)
    800000e0:	02053203          	ld	tp,32(a0)
    800000e4:	02853283          	ld	t0,40(a0)
    800000e8:	03053303          	ld	t1,48(a0)
    800000ec:	03853383          	ld	t2,56(a0)
    800000f0:	04053403          	ld	s0,64(a0)
    800000f4:	04853483          	ld	s1,72(a0)
    800000f8:	05853583          	ld	a1,88(a0)
    800000fc:	06053603          	ld	a2,96(a0)
    80000100:	06853683          	ld	a3,104(a0)
    80000104:	07053703          	ld	a4,112(a0)
    80000108:	07853783          	ld	a5,120(a0)
    8000010c:	08053803          	ld	a6,128(a0)
    80000110:	08853883          	ld	a7,136(a0)
    80000114:	09053903          	ld	s2,144(a0)
    80000118:	09853983          	ld	s3,152(a0)
    8000011c:	0a053a03          	ld	s4,160(a0)
    80000120:	0a853a83          	ld	s5,168(a0)
    80000124:	0b053b03          	ld	s6,176(a0)
    80000128:	0b853b83          	ld	s7,184(a0)
    8000012c:	0c053c03          	ld	s8,192(a0)
    80000130:	0c853c83          	ld	s9,200(a0)
    80000134:	0d053d03          	ld	s10,208(a0)
    80000138:	0d853d83          	ld	s11,216(a0)
    8000013c:	0e053e03          	ld	t3,224(a0)
    80000140:	0e853e83          	ld	t4,232(a0)
    80000144:	0f053f03          	ld	t5,240(a0)
    80000148:	0f853f83          	ld	t6,248(a0)
    8000014c:	05053503          	ld	a0,80(a0)
    80000150:	10200073          	sret

0000000080000154 <trap_entry>:
    80000154:	14011173          	csrrw	sp,sscratch,sp
    80000158:	00113423          	sd	ra,8(sp)
    8000015c:	00313c23          	sd	gp,24(sp)
    80000160:	02413023          	sd	tp,32(sp)
    80000164:	02513423          	sd	t0,40(sp)
    80000168:	02613823          	sd	t1,48(sp)
    8000016c:	02713c23          	sd	t2,56(sp)
    80000170:	04813023          	sd	s0,64(sp)
    80000174:	04913423          	sd	s1,72(sp)
    80000178:	04a13823          	sd	a0,80(sp)
    8000017c:	04b13c23          	sd	a1,88(sp)
    80000180:	06c13023          	sd	a2,96(sp)
    80000184:	06d13423          	sd	a3,104(sp)
    80000188:	06e13823          	sd	a4,112(sp)
    8000018c:	06f13c23          	sd	a5,120(sp)
    80000190:	09013023          	sd	a6,128(sp)
    80000194:	09113423          	sd	a7,136(sp)
    80000198:	09213823          	sd	s2,144(sp)
    8000019c:	09313c23          	sd	s3,152(sp)
    800001a0:	0b413023          	sd	s4,160(sp)
    800001a4:	0b513423          	sd	s5,168(sp)
    800001a8:	0b613823          	sd	s6,176(sp)
    800001ac:	0b713c23          	sd	s7,184(sp)
    800001b0:	0d813023          	sd	s8,192(sp)
    800001b4:	0d913423          	sd	s9,200(sp)
    800001b8:	0da13823          	sd	s10,208(sp)
    800001bc:	0db13c23          	sd	s11,216(sp)
    800001c0:	0fc13023          	sd	t3,224(sp)
    800001c4:	0fd13423          	sd	t4,232(sp)
    800001c8:	0fe13823          	sd	t5,240(sp)
    800001cc:	0ff13c23          	sd	t6,248(sp)
    800001d0:	140112f3          	csrrw	t0,sscratch,sp
    800001d4:	00513823          	sd	t0,16(sp)
    800001d8:	100022f3          	csrr	t0,sstatus
    800001dc:	10513023          	sd	t0,256(sp)
    800001e0:	141022f3          	csrr	t0,sepc
    800001e4:	10513423          	sd	t0,264(sp)
    800001e8:	143022f3          	csrr	t0,stval
    800001ec:	10513823          	sd	t0,272(sp)
    800001f0:	142022f3          	csrr	t0,scause
    800001f4:	10513c23          	sd	t0,280(sp)
    800001f8:	00010513          	mv	a0,sp
    800001fc:	3880206f          	j	80002584 <handle_trap>

Disassembly of section .text:

0000000080002000 <memcpy>:
    80002000:	00c5e7b3          	or	a5,a1,a2
    80002004:	00f567b3          	or	a5,a0,a5
    80002008:	0077f793          	andi	a5,a5,7
    8000200c:	00c506b3          	add	a3,a0,a2
    80002010:	02078463          	beqz	a5,80002038 <memcpy+0x38>
    80002014:	00c58633          	add	a2,a1,a2
    80002018:	00050793          	mv	a5,a0
    8000201c:	02d57e63          	bgeu	a0,a3,80002058 <memcpy+0x58>
    80002020:	0005c703          	lbu	a4,0(a1)
    80002024:	00158593          	addi	a1,a1,1
    80002028:	00178793          	addi	a5,a5,1
    8000202c:	fee78fa3          	sb	a4,-1(a5)
    80002030:	fec598e3          	bne	a1,a2,80002020 <memcpy+0x20>
    80002034:	00008067          	ret
    80002038:	fed57ee3          	bgeu	a0,a3,80002034 <memcpy+0x34>
    8000203c:	00050793          	mv	a5,a0
    80002040:	0005b703          	ld	a4,0(a1)
    80002044:	00878793          	addi	a5,a5,8
    80002048:	00858593          	addi	a1,a1,8
    8000204c:	fee7bc23          	sd	a4,-8(a5)
    80002050:	fed7e8e3          	bltu	a5,a3,80002040 <memcpy+0x40>
    80002054:	00008067          	ret
    80002058:	00008067          	ret

000000008000205c <memset>:
    8000205c:	ff010113          	addi	sp,sp,-16
    80002060:	00c567b3          	or	a5,a0,a2
    80002064:	00813023          	sd	s0,0(sp)
    80002068:	00113423          	sd	ra,8(sp)
    8000206c:	0077f793          	andi	a5,a5,7
    80002070:	00050413          	mv	s0,a0
    80002074:	00c50733          	add	a4,a0,a2
    80002078:	02078263          	beqz	a5,8000209c <memset+0x40>
    8000207c:	00e57663          	bgeu	a0,a4,80002088 <memset+0x2c>
    80002080:	0ff5f593          	zext.b	a1,a1
    80002084:	fd9ff0ef          	jal	ra,8000205c <memset>
    80002088:	00813083          	ld	ra,8(sp)
    8000208c:	00040513          	mv	a0,s0
    80002090:	00013403          	ld	s0,0(sp)
    80002094:	01010113          	addi	sp,sp,16
    80002098:	00008067          	ret
    8000209c:	0ff5f593          	zext.b	a1,a1
    800020a0:	00859693          	slli	a3,a1,0x8
    800020a4:	00b6e5b3          	or	a1,a3,a1
    800020a8:	01059693          	slli	a3,a1,0x10
    800020ac:	00b6e5b3          	or	a1,a3,a1
    800020b0:	02059693          	slli	a3,a1,0x20
    800020b4:	00b6e6b3          	or	a3,a3,a1
    800020b8:	fce578e3          	bgeu	a0,a4,80002088 <memset+0x2c>
    800020bc:	00050793          	mv	a5,a0
    800020c0:	00878793          	addi	a5,a5,8
    800020c4:	fed7bc23          	sd	a3,-8(a5)
    800020c8:	fee7ece3          	bltu	a5,a4,800020c0 <memset+0x64>
    800020cc:	00813083          	ld	ra,8(sp)
    800020d0:	00040513          	mv	a0,s0
    800020d4:	00013403          	ld	s0,0(sp)
    800020d8:	01010113          	addi	sp,sp,16
    800020dc:	00008067          	ret

00000000800020e0 <strlen>:
    800020e0:	00054783          	lbu	a5,0(a0)
    800020e4:	00078e63          	beqz	a5,80002100 <strlen+0x20>
    800020e8:	00050793          	mv	a5,a0
    800020ec:	0017c703          	lbu	a4,1(a5)
    800020f0:	00178793          	addi	a5,a5,1
    800020f4:	fe071ce3          	bnez	a4,800020ec <strlen+0xc>
    800020f8:	40a78533          	sub	a0,a5,a0
    800020fc:	00008067          	ret
    80002100:	00000513          	li	a0,0
    80002104:	00008067          	ret

0000000080002108 <strcmp>:
    80002108:	00054783          	lbu	a5,0(a0)
    8000210c:	00158593          	addi	a1,a1,1
    80002110:	00150513          	addi	a0,a0,1
    80002114:	fff5c703          	lbu	a4,-1(a1)
    80002118:	00078a63          	beqz	a5,8000212c <strcmp+0x24>
    8000211c:	fee786e3          	beq	a5,a4,80002108 <strcmp>
    80002120:	0007851b          	sext.w	a0,a5
    80002124:	40e5053b          	subw	a0,a0,a4
    80002128:	00008067          	ret
    8000212c:	00000513          	li	a0,0
    80002130:	ff5ff06f          	j	80002124 <strcmp+0x1c>

0000000080002134 <memcmp>:
    80002134:	00b567b3          	or	a5,a0,a1
    80002138:	0077f793          	andi	a5,a5,7
    8000213c:	02079e63          	bnez	a5,80002178 <memcmp+0x44>
    80002140:	ff867813          	andi	a6,a2,-8
    80002144:	01050833          	add	a6,a0,a6
    80002148:	03057863          	bgeu	a0,a6,80002178 <memcmp+0x44>
    8000214c:	00050793          	mv	a5,a0
    80002150:	0100006f          	j	80002160 <memcmp+0x2c>
    80002154:	00878793          	addi	a5,a5,8
    80002158:	00858593          	addi	a1,a1,8
    8000215c:	0107f863          	bgeu	a5,a6,8000216c <memcmp+0x38>
    80002160:	0007b683          	ld	a3,0(a5)
    80002164:	0005b703          	ld	a4,0(a1)
    80002168:	fee686e3          	beq	a3,a4,80002154 <memcmp+0x20>
    8000216c:	40a78533          	sub	a0,a5,a0
    80002170:	40a60633          	sub	a2,a2,a0
    80002174:	00078513          	mv	a0,a5
    80002178:	00c58633          	add	a2,a1,a2
    8000217c:	0140006f          	j	80002190 <memcmp+0x5c>
    80002180:	0005c703          	lbu	a4,0(a1)
    80002184:	fff54783          	lbu	a5,-1(a0)
    80002188:	00158593          	addi	a1,a1,1
    8000218c:	00e79a63          	bne	a5,a4,800021a0 <memcmp+0x6c>
    80002190:	00150513          	addi	a0,a0,1
    80002194:	fec596e3          	bne	a1,a2,80002180 <memcmp+0x4c>
    80002198:	00000513          	li	a0,0
    8000219c:	00008067          	ret
    800021a0:	40e7853b          	subw	a0,a5,a4
    800021a4:	00008067          	ret

00000000800021a8 <strcpy>:
    800021a8:	00050793          	mv	a5,a0
    800021ac:	0005c703          	lbu	a4,0(a1)
    800021b0:	00178793          	addi	a5,a5,1
    800021b4:	00158593          	addi	a1,a1,1
    800021b8:	fee78fa3          	sb	a4,-1(a5)
    800021bc:	fe0718e3          	bnez	a4,800021ac <strcpy+0x4>
    800021c0:	00008067          	ret

00000000800021c4 <atol>:
    800021c4:	00054703          	lbu	a4,0(a0)
    800021c8:	02000693          	li	a3,32
    800021cc:	00050793          	mv	a5,a0
    800021d0:	00d71863          	bne	a4,a3,800021e0 <atol+0x1c>
    800021d4:	0017c703          	lbu	a4,1(a5)
    800021d8:	00178793          	addi	a5,a5,1
    800021dc:	fed70ce3          	beq	a4,a3,800021d4 <atol+0x10>
    800021e0:	02d00693          	li	a3,45
    800021e4:	06d70063          	beq	a4,a3,80002244 <atol+0x80>
    800021e8:	02b00693          	li	a3,43
    800021ec:	04d70063          	beq	a4,a3,8000222c <atol+0x68>
    800021f0:	0007c683          	lbu	a3,0(a5)
    800021f4:	00000593          	li	a1,0
    800021f8:	04068263          	beqz	a3,8000223c <atol+0x78>
    800021fc:	00000513          	li	a0,0
    80002200:	00178793          	addi	a5,a5,1
    80002204:	fd06861b          	addiw	a2,a3,-48
    80002208:	00251713          	slli	a4,a0,0x2
    8000220c:	0007c683          	lbu	a3,0(a5)
    80002210:	00a70533          	add	a0,a4,a0
    80002214:	00151513          	slli	a0,a0,0x1
    80002218:	00a60533          	add	a0,a2,a0
    8000221c:	fe0692e3          	bnez	a3,80002200 <atol+0x3c>
    80002220:	02058063          	beqz	a1,80002240 <atol+0x7c>
    80002224:	40a00533          	neg	a0,a0
    80002228:	00008067          	ret
    8000222c:	0017c683          	lbu	a3,1(a5)
    80002230:	00000593          	li	a1,0
    80002234:	00178793          	addi	a5,a5,1
    80002238:	fc0692e3          	bnez	a3,800021fc <atol+0x38>
    8000223c:	00000513          	li	a0,0
    80002240:	00008067          	ret
    80002244:	0017c683          	lbu	a3,1(a5)
    80002248:	00100593          	li	a1,1
    8000224c:	00178793          	addi	a5,a5,1
    80002250:	fa0696e3          	bnez	a3,800021fc <atol+0x38>
    80002254:	00000513          	li	a0,0
    80002258:	fe9ff06f          	j	80002240 <atol+0x7c>

000000008000225c <cputstring>:
    8000225c:	00054783          	lbu	a5,0(a0)
    80002260:	04078063          	beqz	a5,800022a0 <cputstring+0x44>
    80002264:	10100593          	li	a1,257
    80002268:	fffff717          	auipc	a4,0xfffff
    8000226c:	d9870713          	addi	a4,a4,-616 # 80001000 <tohost>
    80002270:	03059593          	slli	a1,a1,0x30
    80002274:	00073603          	ld	a2,0(a4)
    80002278:	00150513          	addi	a0,a0,1
    8000227c:	00b7e6b3          	or	a3,a5,a1
    80002280:	00060a63          	beqz	a2,80002294 <cputstring+0x38>
    80002284:	fffff797          	auipc	a5,0xfffff
    80002288:	da07be23          	sd	zero,-580(a5) # 80001040 <fromhost>
    8000228c:	00073783          	ld	a5,0(a4)
    80002290:	fe079ae3          	bnez	a5,80002284 <cputstring+0x28>
    80002294:	00d73023          	sd	a3,0(a4)
    80002298:	00054783          	lbu	a5,0(a0)
    8000229c:	fc079ce3          	bnez	a5,80002274 <cputstring+0x18>
    800022a0:	00008067          	ret

00000000800022a4 <terminate>:
    800022a4:	fffff717          	auipc	a4,0xfffff
    800022a8:	d5c70713          	addi	a4,a4,-676 # 80001000 <tohost>
    800022ac:	00073783          	ld	a5,0(a4)
    800022b0:	00078a63          	beqz	a5,800022c4 <terminate+0x20>
    800022b4:	fffff797          	auipc	a5,0xfffff
    800022b8:	d807b623          	sd	zero,-628(a5) # 80001040 <fromhost>
    800022bc:	00073783          	ld	a5,0(a4)
    800022c0:	fe079ae3          	bnez	a5,800022b4 <terminate+0x10>
    800022c4:	00a73023          	sd	a0,0(a4)
    800022c8:	0000006f          	j	800022c8 <terminate+0x24>

00000000800022cc <wtf>:
    800022cc:	ff010113          	addi	sp,sp,-16
    800022d0:	34900513          	li	a0,841
    800022d4:	00113423          	sd	ra,8(sp)
    800022d8:	fcdff0ef          	jal	ra,800022a4 <terminate>

00000000800022dc <printhex>:
    800022dc:	fe010113          	addi	sp,sp,-32
    800022e0:	00810613          	addi	a2,sp,8
    800022e4:	01710793          	addi	a5,sp,23
    800022e8:	00900813          	li	a6,9
    800022ec:	0080006f          	j	800022f4 <printhex+0x18>
    800022f0:	00070793          	mv	a5,a4
    800022f4:	00f57693          	andi	a3,a0,15
    800022f8:	00068713          	mv	a4,a3
    800022fc:	03000593          	li	a1,48
    80002300:	00d87463          	bgeu	a6,a3,80002308 <printhex+0x2c>
    80002304:	05700593          	li	a1,87
    80002308:	00b7073b          	addw	a4,a4,a1
    8000230c:	00e78023          	sb	a4,0(a5)
    80002310:	00455513          	srli	a0,a0,0x4
    80002314:	fff78713          	addi	a4,a5,-1
    80002318:	fcf61ce3          	bne	a2,a5,800022f0 <printhex+0x14>
    8000231c:	00814783          	lbu	a5,8(sp)
    80002320:	00010c23          	sb	zero,24(sp)
    80002324:	04078263          	beqz	a5,80002368 <printhex+0x8c>
    80002328:	10100513          	li	a0,257
    8000232c:	00060693          	mv	a3,a2
    80002330:	fffff717          	auipc	a4,0xfffff
    80002334:	cd070713          	addi	a4,a4,-816 # 80001000 <tohost>
    80002338:	03051513          	slli	a0,a0,0x30
    8000233c:	00073583          	ld	a1,0(a4)
    80002340:	00168693          	addi	a3,a3,1
    80002344:	00a7e633          	or	a2,a5,a0
    80002348:	00058a63          	beqz	a1,8000235c <printhex+0x80>
    8000234c:	fffff797          	auipc	a5,0xfffff
    80002350:	ce07ba23          	sd	zero,-780(a5) # 80001040 <fromhost>
    80002354:	00073783          	ld	a5,0(a4)
    80002358:	fe079ae3          	bnez	a5,8000234c <printhex+0x70>
    8000235c:	0006c783          	lbu	a5,0(a3)
    80002360:	00c73023          	sd	a2,0(a4)
    80002364:	fc079ce3          	bnez	a5,8000233c <printhex+0x60>
    80002368:	02010113          	addi	sp,sp,32
    8000236c:	00008067          	ret

0000000080002370 <handle_fault>:
    80002370:	fb010113          	addi	sp,sp,-80
    80002374:	00100793          	li	a5,1
    80002378:	04813023          	sd	s0,64(sp)
    8000237c:	fffff437          	lui	s0,0xfffff
    80002380:	00f12223          	sw	a5,4(sp)
    80002384:	04113423          	sd	ra,72(sp)
    80002388:	02913c23          	sd	s1,56(sp)
    8000238c:	03213823          	sd	s2,48(sp)
    80002390:	03313423          	sd	s3,40(sp)
    80002394:	03413023          	sd	s4,32(sp)
    80002398:	01513c23          	sd	s5,24(sp)
    8000239c:	00013423          	sd	zero,8(sp)
    800023a0:	00850733          	add	a4,a0,s0
    800023a4:	0003e7b7          	lui	a5,0x3e
    800023a8:	18f77663          	bgeu	a4,a5,80002534 <handle_fault+0x1c4>
    800023ac:	00c55993          	srli	s3,a0,0xc
    800023b0:	60098913          	addi	s2,s3,1536
    800023b4:	00003497          	auipc	s1,0x3
    800023b8:	c4c48493          	addi	s1,s1,-948 # 80005000 <pt>
    800023bc:	00391793          	slli	a5,s2,0x3
    800023c0:	00f487b3          	add	a5,s1,a5
    800023c4:	0007b703          	ld	a4,0(a5) # 3e000 <_start-0x7ffc2000>
    800023c8:	00857433          	and	s0,a0,s0
    800023cc:	10071663          	bnez	a4,800024d8 <handle_fault+0x168>
    800023d0:	00007717          	auipc	a4,0x7
    800023d4:	c3870713          	addi	a4,a4,-968 # 80009008 <freelist_head>
    800023d8:	00073a03          	ld	s4,0(a4)
    800023dc:	180a0063          	beqz	s4,8000255c <handle_fault+0x1ec>
    800023e0:	008a3783          	ld	a5,8(s4)
    800023e4:	00007697          	auipc	a3,0x7
    800023e8:	c1c6b683          	ld	a3,-996(a3) # 80009000 <freelist_tail>
    800023ec:	00f73023          	sd	a5,0(a4)
    800023f0:	12d78c63          	beq	a5,a3,80002528 <handle_fault+0x1b8>
    800023f4:	00410613          	addi	a2,sp,4
    800023f8:	00810593          	addi	a1,sp,8
    800023fc:	00040513          	mv	a0,s0
    80002400:	000a3a83          	ld	s5,0(s4)
    80002404:	5e8000ef          	jal	ra,800029ec <pf_filter>
    80002408:	0e051c63          	bnez	a0,80002500 <handle_fault+0x190>
    8000240c:	00cad693          	srli	a3,s5,0xc
    80002410:	00a69693          	slli	a3,a3,0xa
    80002414:	01f6e693          	ori	a3,a3,31
    80002418:	00391793          	slli	a5,s2,0x3
    8000241c:	00f487b3          	add	a5,s1,a5
    80002420:	0c06e713          	ori	a4,a3,192
    80002424:	00e7b023          	sd	a4,0(a5)
    80002428:	12040073          	sfence.vma	s0
    8000242c:	00002797          	auipc	a5,0x2
    80002430:	bd478793          	addi	a5,a5,-1068 # 80004000 <user_mapping>
    80002434:	00499993          	slli	s3,s3,0x4
    80002438:	013789b3          	add	s3,a5,s3
    8000243c:	0009b783          	ld	a5,0(s3)
    80002440:	12079863          	bnez	a5,80002570 <handle_fault+0x200>
    80002444:	000a3783          	ld	a5,0(s4)
    80002448:	000405b7          	lui	a1,0x40
    8000244c:	00f9b023          	sd	a5,0(s3)
    80002450:	008a3783          	ld	a5,8(s4)
    80002454:	00f9b423          	sd	a5,8(s3)
    80002458:	1005a5f3          	csrrs	a1,sstatus,a1
    8000245c:	ffe007b7          	lui	a5,0xffe00
    80002460:	00f407b3          	add	a5,s0,a5
    80002464:	00001637          	lui	a2,0x1
    80002468:	00040713          	mv	a4,s0
    8000246c:	00c78633          	add	a2,a5,a2
    80002470:	0007b303          	ld	t1,0(a5) # ffffffffffe00000 <freelist_head+0xffffffff7fdf6ff8>
    80002474:	0087b883          	ld	a7,8(a5)
    80002478:	0107b803          	ld	a6,16(a5)
    8000247c:	0187b503          	ld	a0,24(a5)
    80002480:	00673023          	sd	t1,0(a4)
    80002484:	01173423          	sd	a7,8(a4)
    80002488:	01073823          	sd	a6,16(a4)
    8000248c:	00a73c23          	sd	a0,24(a4)
    80002490:	02078793          	addi	a5,a5,32
    80002494:	02070713          	addi	a4,a4,32
    80002498:	fcc79ce3          	bne	a5,a2,80002470 <handle_fault+0x100>
    8000249c:	10059073          	csrw	sstatus,a1
    800024a0:	00391913          	slli	s2,s2,0x3
    800024a4:	012484b3          	add	s1,s1,s2
    800024a8:	00d4b023          	sd	a3,0(s1)
    800024ac:	12040073          	sfence.vma	s0
    800024b0:	0000100f          	fence.i
    800024b4:	04813083          	ld	ra,72(sp)
    800024b8:	04013403          	ld	s0,64(sp)
    800024bc:	03813483          	ld	s1,56(sp)
    800024c0:	03013903          	ld	s2,48(sp)
    800024c4:	02813983          	ld	s3,40(sp)
    800024c8:	02013a03          	ld	s4,32(sp)
    800024cc:	01813a83          	ld	s5,24(sp)
    800024d0:	05010113          	addi	sp,sp,80
    800024d4:	00008067          	ret
    800024d8:	04077693          	andi	a3,a4,64
    800024dc:	02068e63          	beqz	a3,80002518 <handle_fault+0x1a8>
    800024e0:	08077693          	andi	a3,a4,128
    800024e4:	06069263          	bnez	a3,80002548 <handle_fault+0x1d8>
    800024e8:	00f00693          	li	a3,15
    800024ec:	04d59e63          	bne	a1,a3,80002548 <handle_fault+0x1d8>
    800024f0:	08076713          	ori	a4,a4,128
    800024f4:	00e7b023          	sd	a4,0(a5)
    800024f8:	12040073          	sfence.vma	s0
    800024fc:	fb9ff06f          	j	800024b4 <handle_fault+0x144>
    80002500:	000a3683          	ld	a3,0(s4)
    80002504:	00813783          	ld	a5,8(sp)
    80002508:	00c6d693          	srli	a3,a3,0xc
    8000250c:	00a69693          	slli	a3,a3,0xa
    80002510:	00f6e6b3          	or	a3,a3,a5
    80002514:	f05ff06f          	j	80002418 <handle_fault+0xa8>
    80002518:	04076713          	ori	a4,a4,64
    8000251c:	00e7b023          	sd	a4,0(a5)
    80002520:	12040073          	sfence.vma	s0
    80002524:	f91ff06f          	j	800024b4 <handle_fault+0x144>
    80002528:	00007797          	auipc	a5,0x7
    8000252c:	ac07bc23          	sd	zero,-1320(a5) # 80009000 <freelist_tail>
    80002530:	ec5ff06f          	j	800023f4 <handle_fault+0x84>
    80002534:	00001517          	auipc	a0,0x1
    80002538:	3bc50513          	addi	a0,a0,956 # 800038f0 <pass+0xc>
    8000253c:	d21ff0ef          	jal	ra,8000225c <cputstring>
    80002540:	00300513          	li	a0,3
    80002544:	d61ff0ef          	jal	ra,800022a4 <terminate>
    80002548:	00001517          	auipc	a0,0x1
    8000254c:	3f050513          	addi	a0,a0,1008 # 80003938 <pass+0x54>
    80002550:	d0dff0ef          	jal	ra,8000225c <cputstring>
    80002554:	00300513          	li	a0,3
    80002558:	d4dff0ef          	jal	ra,800022a4 <terminate>
    8000255c:	00001517          	auipc	a0,0x1
    80002560:	42450513          	addi	a0,a0,1060 # 80003980 <pass+0x9c>
    80002564:	cf9ff0ef          	jal	ra,8000225c <cputstring>
    80002568:	00300513          	li	a0,3
    8000256c:	d39ff0ef          	jal	ra,800022a4 <terminate>
    80002570:	00001517          	auipc	a0,0x1
    80002574:	42850513          	addi	a0,a0,1064 # 80003998 <pass+0xb4>
    80002578:	ce5ff0ef          	jal	ra,8000225c <cputstring>
    8000257c:	00300513          	li	a0,3
    80002580:	d25ff0ef          	jal	ra,800022a4 <terminate>

0000000080002584 <handle_trap>:
    80002584:	f8010113          	addi	sp,sp,-128
    80002588:	06813823          	sd	s0,112(sp)
    8000258c:	06113c23          	sd	ra,120(sp)
    80002590:	06913423          	sd	s1,104(sp)
    80002594:	07213023          	sd	s2,96(sp)
    80002598:	05313c23          	sd	s3,88(sp)
    8000259c:	05413823          	sd	s4,80(sp)
    800025a0:	05513423          	sd	s5,72(sp)
    800025a4:	05613023          	sd	s6,64(sp)
    800025a8:	03713c23          	sd	s7,56(sp)
    800025ac:	03813823          	sd	s8,48(sp)
    800025b0:	03913423          	sd	s9,40(sp)
    800025b4:	03a13023          	sd	s10,32(sp)
    800025b8:	01b13c23          	sd	s11,24(sp)
    800025bc:	00050413          	mv	s0,a0
    800025c0:	424000ef          	jal	ra,800029e4 <trap_filter>
    800025c4:	0e051263          	bnez	a0,800026a8 <handle_trap+0x124>
    800025c8:	11843583          	ld	a1,280(s0) # fffffffffffff118 <freelist_head+0xffffffff7fff6110>
    800025cc:	00800793          	li	a5,8
    800025d0:	10f58063          	beq	a1,a5,800026d0 <handle_trap+0x14c>
    800025d4:	00200793          	li	a5,2
    800025d8:	06f58063          	beq	a1,a5,80002638 <handle_trap+0xb4>
    800025dc:	ff458793          	addi	a5,a1,-12 # 3fff4 <_start-0x7ffc000c>
    800025e0:	00100713          	li	a4,1
    800025e4:	00f77663          	bgeu	a4,a5,800025f0 <handle_trap+0x6c>
    800025e8:	00f00793          	li	a5,15
    800025ec:	1af59c63          	bne	a1,a5,800027a4 <handle_trap+0x220>
    800025f0:	11043503          	ld	a0,272(s0)
    800025f4:	d7dff0ef          	jal	ra,80002370 <handle_fault>
    800025f8:	00040513          	mv	a0,s0
    800025fc:	07013403          	ld	s0,112(sp)
    80002600:	07813083          	ld	ra,120(sp)
    80002604:	06813483          	ld	s1,104(sp)
    80002608:	06013903          	ld	s2,96(sp)
    8000260c:	05813983          	ld	s3,88(sp)
    80002610:	05013a03          	ld	s4,80(sp)
    80002614:	04813a83          	ld	s5,72(sp)
    80002618:	04013b03          	ld	s6,64(sp)
    8000261c:	03813b83          	ld	s7,56(sp)
    80002620:	03013c03          	ld	s8,48(sp)
    80002624:	02813c83          	ld	s9,40(sp)
    80002628:	02013d03          	ld	s10,32(sp)
    8000262c:	01813d83          	ld	s11,24(sp)
    80002630:	08010113          	addi	sp,sp,128
    80002634:	a99fd06f          	j	800000cc <pop_tf>
    80002638:	10843703          	ld	a4,264(s0)
    8000263c:	00377793          	andi	a5,a4,3
    80002640:	06079e63          	bnez	a5,800026bc <handle_trap+0x138>
    80002644:	008007ef          	jal	a5,8000264c <handle_trap+0xc8>
    80002648:	00301073          	fscsr	zero
    8000264c:	00072703          	lw	a4,0(a4)
    80002650:	0007a783          	lw	a5,0(a5)
    80002654:	06f70063          	beq	a4,a5,800026b4 <handle_trap+0x130>
    80002658:	10100513          	li	a0,257
    8000265c:	04100793          	li	a5,65
    80002660:	00001697          	auipc	a3,0x1
    80002664:	37868693          	addi	a3,a3,888 # 800039d8 <pass+0xf4>
    80002668:	fffff717          	auipc	a4,0xfffff
    8000266c:	99870713          	addi	a4,a4,-1640 # 80001000 <tohost>
    80002670:	03051513          	slli	a0,a0,0x30
    80002674:	00073583          	ld	a1,0(a4)
    80002678:	00168693          	addi	a3,a3,1
    8000267c:	00a7e633          	or	a2,a5,a0
    80002680:	00058a63          	beqz	a1,80002694 <handle_trap+0x110>
    80002684:	fffff797          	auipc	a5,0xfffff
    80002688:	9a07be23          	sd	zero,-1604(a5) # 80001040 <fromhost>
    8000268c:	00073783          	ld	a5,0(a4)
    80002690:	fe079ae3          	bnez	a5,80002684 <handle_trap+0x100>
    80002694:	0006c783          	lbu	a5,0(a3)
    80002698:	00c73023          	sd	a2,0(a4)
    8000269c:	fc079ce3          	bnez	a5,80002674 <handle_trap+0xf0>
    800026a0:	00300513          	li	a0,3
    800026a4:	c01ff0ef          	jal	ra,800022a4 <terminate>
    800026a8:	00040513          	mv	a0,s0
    800026ac:	a21fd0ef          	jal	ra,800000cc <pop_tf>
    800026b0:	f19ff06f          	j	800025c8 <handle_trap+0x44>
    800026b4:	00100513          	li	a0,1
    800026b8:	bedff0ef          	jal	ra,800022a4 <terminate>
    800026bc:	00001517          	auipc	a0,0x1
    800026c0:	3bc50513          	addi	a0,a0,956 # 80003a78 <pass+0x194>
    800026c4:	b99ff0ef          	jal	ra,8000225c <cputstring>
    800026c8:	00300513          	li	a0,3
    800026cc:	bd9ff0ef          	jal	ra,800022a4 <terminate>
    800026d0:	05042903          	lw	s2,80(s0)
    800026d4:	00001c37          	lui	s8,0x1
    800026d8:	00002497          	auipc	s1,0x2
    800026dc:	92848493          	addi	s1,s1,-1752 # 80004000 <user_mapping>
    800026e0:	00003b97          	auipc	s7,0x3
    800026e4:	920b8b93          	addi	s7,s7,-1760 # 80005000 <pt>
    800026e8:	00040b37          	lui	s6,0x40
    800026ec:	ffe00ab7          	lui	s5,0xffe00
    800026f0:	00007d97          	auipc	s11,0x7
    800026f4:	910d8d93          	addi	s11,s11,-1776 # 80009000 <freelist_tail>
    800026f8:	00007a17          	auipc	s4,0x7
    800026fc:	910a0a13          	addi	s4,s4,-1776 # 80009008 <freelist_head>
    80002700:	0003f9b7          	lui	s3,0x3f
    80002704:	0180006f          	j	8000271c <handle_trap+0x198>
    80002708:	00f73423          	sd	a5,8(a4)
    8000270c:	00fdb023          	sd	a5,0(s11)
    80002710:	000017b7          	lui	a5,0x1
    80002714:	00fc0c33          	add	s8,s8,a5
    80002718:	0d3c0263          	beq	s8,s3,800027dc <handle_trap+0x258>
    8000271c:	00cc5793          	srli	a5,s8,0xc
    80002720:	00479413          	slli	s0,a5,0x4
    80002724:	00848733          	add	a4,s1,s0
    80002728:	00073703          	ld	a4,0(a4)
    8000272c:	fe0702e3          	beqz	a4,80002710 <handle_trap+0x18c>
    80002730:	60078793          	addi	a5,a5,1536 # 1600 <_start-0x7fffea00>
    80002734:	00379793          	slli	a5,a5,0x3
    80002738:	00fb87b3          	add	a5,s7,a5
    8000273c:	0007bc83          	ld	s9,0(a5)
    80002740:	040cf793          	andi	a5,s9,64
    80002744:	08078263          	beqz	a5,800027c8 <handle_trap+0x244>
    80002748:	100b2d73          	csrrs	s10,sstatus,s6
    8000274c:	015c07b3          	add	a5,s8,s5
    80002750:	00001637          	lui	a2,0x1
    80002754:	00078593          	mv	a1,a5
    80002758:	000c0513          	mv	a0,s8
    8000275c:	00f13423          	sd	a5,8(sp)
    80002760:	9d5ff0ef          	jal	ra,80002134 <memcmp>
    80002764:	02050063          	beqz	a0,80002784 <handle_trap+0x200>
    80002768:	080cfc93          	andi	s9,s9,128
    8000276c:	00813783          	ld	a5,8(sp)
    80002770:	040c8263          	beqz	s9,800027b4 <handle_trap+0x230>
    80002774:	00001637          	lui	a2,0x1
    80002778:	000c0593          	mv	a1,s8
    8000277c:	00078513          	mv	a0,a5
    80002780:	881ff0ef          	jal	ra,80002000 <memcpy>
    80002784:	008487b3          	add	a5,s1,s0
    80002788:	100d1073          	csrw	sstatus,s10
    8000278c:	000db703          	ld	a4,0(s11)
    80002790:	0007b023          	sd	zero,0(a5)
    80002794:	f6071ae3          	bnez	a4,80002708 <handle_trap+0x184>
    80002798:	00fdb023          	sd	a5,0(s11)
    8000279c:	00fa3023          	sd	a5,0(s4)
    800027a0:	f71ff06f          	j	80002710 <handle_trap+0x18c>
    800027a4:	00001517          	auipc	a0,0x1
    800027a8:	2fc50513          	addi	a0,a0,764 # 80003aa0 <pass+0x1bc>
    800027ac:	ab1ff0ef          	jal	ra,8000225c <cputstring>
    800027b0:	ef1ff06f          	j	800026a0 <handle_trap+0x11c>
    800027b4:	00001517          	auipc	a0,0x1
    800027b8:	28c50513          	addi	a0,a0,652 # 80003a40 <pass+0x15c>
    800027bc:	aa1ff0ef          	jal	ra,8000225c <cputstring>
    800027c0:	00300513          	li	a0,3
    800027c4:	ae1ff0ef          	jal	ra,800022a4 <terminate>
    800027c8:	00001517          	auipc	a0,0x1
    800027cc:	24050513          	addi	a0,a0,576 # 80003a08 <pass+0x124>
    800027d0:	a8dff0ef          	jal	ra,8000225c <cputstring>
    800027d4:	00300513          	li	a0,3
    800027d8:	acdff0ef          	jal	ra,800022a4 <terminate>
    800027dc:	00090513          	mv	a0,s2
    800027e0:	ac5ff0ef          	jal	ra,800022a4 <terminate>

00000000800027e4 <vm_boot>:
    800027e4:	f14027f3          	csrr	a5,mhartid
    800027e8:	18079a63          	bnez	a5,8000297c <vm_boot+0x198>
    800027ec:	00005797          	auipc	a5,0x5
    800027f0:	81478793          	addi	a5,a5,-2028 # 80007000 <pt+0x2000>
    800027f4:	ed010113          	addi	sp,sp,-304
    800027f8:	00c7d793          	srli	a5,a5,0xc
    800027fc:	12813023          	sd	s0,288(sp)
    80002800:	00006817          	auipc	a6,0x6
    80002804:	80080813          	addi	a6,a6,-2048 # 80008000 <pt+0x3000>
    80002808:	00050413          	mv	s0,a0
    8000280c:	00a79793          	slli	a5,a5,0xa
    80002810:	00003517          	auipc	a0,0x3
    80002814:	7f050513          	addi	a0,a0,2032 # 80006000 <pt+0x1000>
    80002818:	12113423          	sd	ra,296(sp)
    8000281c:	00c55693          	srli	a3,a0,0xc
    80002820:	00c85713          	srli	a4,a6,0xc
    80002824:	0017e793          	ori	a5,a5,1
    80002828:	00002897          	auipc	a7,0x2
    8000282c:	7d888893          	addi	a7,a7,2008 # 80005000 <pt>
    80002830:	fff00613          	li	a2,-1
    80002834:	fef53c23          	sd	a5,-8(a0)
    80002838:	00a69693          	slli	a3,a3,0xa
    8000283c:	00a71713          	slli	a4,a4,0xa
    80002840:	200007b7          	lui	a5,0x20000
    80002844:	0016e693          	ori	a3,a3,1
    80002848:	00176713          	ori	a4,a4,1
    8000284c:	00c8d593          	srli	a1,a7,0xc
    80002850:	03f61313          	slli	t1,a2,0x3f
    80002854:	0cf78793          	addi	a5,a5,207 # 200000cf <_start-0x5fffff31>
    80002858:	fef83c23          	sd	a5,-8(a6)
    8000285c:	00d8b023          	sd	a3,0(a7)
    80002860:	00e53023          	sd	a4,0(a0)
    80002864:	0065e7b3          	or	a5,a1,t1
    80002868:	18079073          	csrw	satp,a5
    8000286c:	18002773          	csrr	a4,satp
    80002870:	14e79e63          	bne	a5,a4,800029cc <vm_boot+0x1e8>
    80002874:	00b65613          	srli	a2,a2,0xb
    80002878:	01f00793          	li	a5,31
    8000287c:	00000297          	auipc	t0,0x0
    80002880:	01428293          	addi	t0,t0,20 # 80002890 <vm_boot+0xac>
    80002884:	305292f3          	csrrw	t0,mtvec,t0
    80002888:	3b061073          	csrw	pmpaddr0,a2
    8000288c:	3a079073          	csrw	pmpcfg0,a5
    80002890:	30529073          	csrw	mtvec,t0
    80002894:	bff00813          	li	a6,-1025
    80002898:	01581813          	slli	a6,a6,0x15
    8000289c:	ffffe797          	auipc	a5,0xffffe
    800028a0:	8b878793          	addi	a5,a5,-1864 # 80000154 <trap_entry>
    800028a4:	010787b3          	add	a5,a5,a6
    800028a8:	10579073          	csrw	stvec,a5
    800028ac:	340027f3          	csrr	a5,mscratch
    800028b0:	010787b3          	add	a5,a5,a6
    800028b4:	14079073          	csrw	sscratch,a5
    800028b8:	0000b7b7          	lui	a5,0xb
    800028bc:	1007879b          	addiw	a5,a5,256
    800028c0:	30279073          	csrw	medeleg,a5
    800028c4:	0001e7b7          	lui	a5,0x1e
    800028c8:	6007879b          	addiw	a5,a5,1536
    800028cc:	30079073          	csrw	mstatus,a5
    800028d0:	30405073          	csrwi	mie,0
    800028d4:	00002717          	auipc	a4,0x2
    800028d8:	b1c70713          	addi	a4,a4,-1252 # 800043f0 <freelist_nodes>
    800028dc:	3e080793          	addi	a5,a6,992
    800028e0:	010706b3          	add	a3,a4,a6
    800028e4:	00f707b3          	add	a5,a4,a5
    800028e8:	000808b7          	lui	a7,0x80
    800028ec:	00006617          	auipc	a2,0x6
    800028f0:	70d63e23          	sd	a3,1820(a2) # 80009008 <freelist_head>
    800028f4:	00002317          	auipc	t1,0x2
    800028f8:	eec30313          	addi	t1,t1,-276 # 800047e0 <freelist_nodes+0x3f0>
    800028fc:	00006697          	auipc	a3,0x6
    80002900:	70f6b223          	sd	a5,1796(a3) # 80009000 <freelist_tail>
    80002904:	03f88893          	addi	a7,a7,63 # 8003f <_start-0x7ff7ffc1>
    80002908:	00300793          	li	a5,3
    8000290c:	01080813          	addi	a6,a6,16
    80002910:	0017d613          	srli	a2,a5,0x1
    80002914:	011786b3          	add	a3,a5,a7
    80002918:	00f647b3          	xor	a5,a2,a5
    8000291c:	010705b3          	add	a1,a4,a6
    80002920:	00c69693          	slli	a3,a3,0xc
    80002924:	00579793          	slli	a5,a5,0x5
    80002928:	00d73023          	sd	a3,0(a4)
    8000292c:	00b73423          	sd	a1,8(a4)
    80002930:	0207f793          	andi	a5,a5,32
    80002934:	01070713          	addi	a4,a4,16
    80002938:	00f667b3          	or	a5,a2,a5
    8000293c:	fce31ae3          	bne	t1,a4,80002910 <vm_boot+0x12c>
    80002940:	12000613          	li	a2,288
    80002944:	00000593          	li	a1,0
    80002948:	00010513          	mv	a0,sp
    8000294c:	00002797          	auipc	a5,0x2
    80002950:	e807b623          	sd	zero,-372(a5) # 800047d8 <freelist_nodes+0x3e8>
    80002954:	f08ff0ef          	jal	ra,8000205c <memset>
    80002958:	800007b7          	lui	a5,0x80000
    8000295c:	00f40433          	add	s0,s0,a5
    80002960:	00010513          	mv	a0,sp
    80002964:	10813423          	sd	s0,264(sp)
    80002968:	f64fd0ef          	jal	ra,800000cc <pop_tf>
    8000296c:	12813083          	ld	ra,296(sp)
    80002970:	12013403          	ld	s0,288(sp)
    80002974:	13010113          	addi	sp,sp,304
    80002978:	00008067          	ret
    8000297c:	00100713          	li	a4,1
    80002980:	0163a7b7          	lui	a5,0x163a
    80002984:	00080637          	lui	a2,0x80
    80002988:	84d78793          	addi	a5,a5,-1971 # 163984d <_start-0x7e9c67b3>
    8000298c:	ffc60613          	addi	a2,a2,-4 # 7fffc <_start-0x7ff80004>
    80002990:	01f71513          	slli	a0,a4,0x1f
    80002994:	03e71693          	slli	a3,a4,0x3e
    80002998:	01c0006f          	j	800029b4 <vm_boot+0x1d0>
    8000299c:	0007202f          	amoadd.w	zero,zero,(a4)
    800029a0:	0017d713          	srli	a4,a5,0x1
    800029a4:	00e7c7b3          	xor	a5,a5,a4
    800029a8:	03e79793          	slli	a5,a5,0x3e
    800029ac:	00d7f7b3          	and	a5,a5,a3
    800029b0:	00e7e7b3          	or	a5,a5,a4
    800029b4:	00c7f733          	and	a4,a5,a2
    800029b8:	0017f593          	andi	a1,a5,1
    800029bc:	00a70733          	add	a4,a4,a0
    800029c0:	fc059ee3          	bnez	a1,8000299c <vm_boot+0x1b8>
    800029c4:	00072003          	lw	zero,0(a4)
    800029c8:	fd9ff06f          	j	800029a0 <vm_boot+0x1bc>
    800029cc:	00001517          	auipc	a0,0x1
    800029d0:	10450513          	addi	a0,a0,260 # 80003ad0 <pass+0x1ec>
    800029d4:	889ff0ef          	jal	ra,8000225c <cputstring>
    800029d8:	00300513          	li	a0,3
    800029dc:	8c9ff0ef          	jal	ra,800022a4 <terminate>

00000000800029e0 <extra_boot>:
    800029e0:	00008067          	ret

00000000800029e4 <trap_filter>:
    800029e4:	00000513          	li	a0,0
    800029e8:	00008067          	ret

00000000800029ec <pf_filter>:
    800029ec:	00000513          	li	a0,0
    800029f0:	00008067          	ret

00000000800029f4 <userstart>:
    800029f4:	00301073          	fscsr	zero

00000000800029f8 <test_10>:
    800029f8:	00a00193          	li	gp,10
    800029fc:	002475b7          	lui	a1,0x247
    80002a00:	8ad5859b          	addiw	a1,a1,-1875
    80002a04:	00e59593          	slli	a1,a1,0xe
    80002a08:	c4d58593          	addi	a1,a1,-947 # 246c4d <_start-0x7fdb93b3>
    80002a0c:	00c59593          	slli	a1,a1,0xc
    80002a10:	5e758593          	addi	a1,a1,1511
    80002a14:	00d59593          	slli	a1,a1,0xd
    80002a18:	ef058593          	addi	a1,a1,-272
    80002a1c:	00000613          	li	a2,0
    80002a20:	f20580d3          	fmv.d.x	ft1,a1
    80002a24:	f2060153          	fmv.d.x	ft2,a2
    80002a28:	22208053          	fsgnj.d	ft0,ft1,ft2
    80002a2c:	e2000553          	fmv.x.d	a0,ft0
    80002a30:	002473b7          	lui	t2,0x247
    80002a34:	8ad3839b          	addiw	t2,t2,-1875
    80002a38:	00e39393          	slli	t2,t2,0xe
    80002a3c:	c4d38393          	addi	t2,t2,-947 # 246c4d <_start-0x7fdb93b3>
    80002a40:	00c39393          	slli	t2,t2,0xc
    80002a44:	5e738393          	addi	t2,t2,1511
    80002a48:	00d39393          	slli	t2,t2,0xd
    80002a4c:	ef038393          	addi	t2,t2,-272
    80002a50:	687512e3          	bne	a0,t2,800038d4 <fail>

0000000080002a54 <test_11>:
    80002a54:	00b00193          	li	gp,11
    80002a58:	002475b7          	lui	a1,0x247
    80002a5c:	8ad5859b          	addiw	a1,a1,-1875
    80002a60:	00e59593          	slli	a1,a1,0xe
    80002a64:	c4d58593          	addi	a1,a1,-947 # 246c4d <_start-0x7fdb93b3>
    80002a68:	00c59593          	slli	a1,a1,0xc
    80002a6c:	5e758593          	addi	a1,a1,1511
    80002a70:	00d59593          	slli	a1,a1,0xd
    80002a74:	ef058593          	addi	a1,a1,-272
    80002a78:	fff00613          	li	a2,-1
    80002a7c:	f20580d3          	fmv.d.x	ft1,a1
    80002a80:	f2060153          	fmv.d.x	ft2,a2
    80002a84:	22208053          	fsgnj.d	ft0,ft1,ft2
    80002a88:	e2000553          	fmv.x.d	a0,ft0
    80002a8c:	ff2473b7          	lui	t2,0xff247
    80002a90:	8ad3839b          	addiw	t2,t2,-1875
    80002a94:	00e39393          	slli	t2,t2,0xe
    80002a98:	c4d38393          	addi	t2,t2,-947 # ffffffffff246c4d <freelist_head+0xffffffff7f23dc45>
    80002a9c:	00c39393          	slli	t2,t2,0xc
    80002aa0:	5e738393          	addi	t2,t2,1511
    80002aa4:	00d39393          	slli	t2,t2,0xd
    80002aa8:	ef038393          	addi	t2,t2,-272
    80002aac:	627514e3          	bne	a0,t2,800038d4 <fail>

0000000080002ab0 <test_12>:
    80002ab0:	00c00193          	li	gp,12
    80002ab4:	ff2475b7          	lui	a1,0xff247
    80002ab8:	8ad5859b          	addiw	a1,a1,-1875
    80002abc:	00e59593          	slli	a1,a1,0xe
    80002ac0:	c4d58593          	addi	a1,a1,-947 # ffffffffff246c4d <freelist_head+0xffffffff7f23dc45>
    80002ac4:	00c59593          	slli	a1,a1,0xc
    80002ac8:	5e758593          	addi	a1,a1,1511
    80002acc:	00d59593          	slli	a1,a1,0xd
    80002ad0:	ef058593          	addi	a1,a1,-272
    80002ad4:	00000613          	li	a2,0
    80002ad8:	f20580d3          	fmv.d.x	ft1,a1
    80002adc:	f2060153          	fmv.d.x	ft2,a2
    80002ae0:	22208053          	fsgnj.d	ft0,ft1,ft2
    80002ae4:	e2000553          	fmv.x.d	a0,ft0
    80002ae8:	002473b7          	lui	t2,0x247
    80002aec:	8ad3839b          	addiw	t2,t2,-1875
    80002af0:	00e39393          	slli	t2,t2,0xe
    80002af4:	c4d38393          	addi	t2,t2,-947 # 246c4d <_start-0x7fdb93b3>
    80002af8:	00c39393          	slli	t2,t2,0xc
    80002afc:	5e738393          	addi	t2,t2,1511
    80002b00:	00d39393          	slli	t2,t2,0xd
    80002b04:	ef038393          	addi	t2,t2,-272
    80002b08:	5c7516e3          	bne	a0,t2,800038d4 <fail>

0000000080002b0c <test_13>:
    80002b0c:	00d00193          	li	gp,13
    80002b10:	ff2475b7          	lui	a1,0xff247
    80002b14:	8ad5859b          	addiw	a1,a1,-1875
    80002b18:	00e59593          	slli	a1,a1,0xe
    80002b1c:	c4d58593          	addi	a1,a1,-947 # ffffffffff246c4d <freelist_head+0xffffffff7f23dc45>
    80002b20:	00c59593          	slli	a1,a1,0xc
    80002b24:	5e758593          	addi	a1,a1,1511
    80002b28:	00d59593          	slli	a1,a1,0xd
    80002b2c:	ef058593          	addi	a1,a1,-272
    80002b30:	fff00613          	li	a2,-1
    80002b34:	f20580d3          	fmv.d.x	ft1,a1
    80002b38:	f2060153          	fmv.d.x	ft2,a2
    80002b3c:	22208053          	fsgnj.d	ft0,ft1,ft2
    80002b40:	e2000553          	fmv.x.d	a0,ft0
    80002b44:	ff2473b7          	lui	t2,0xff247
    80002b48:	8ad3839b          	addiw	t2,t2,-1875
    80002b4c:	00e39393          	slli	t2,t2,0xe
    80002b50:	c4d38393          	addi	t2,t2,-947 # ffffffffff246c4d <freelist_head+0xffffffff7f23dc45>
    80002b54:	00c39393          	slli	t2,t2,0xc
    80002b58:	5e738393          	addi	t2,t2,1511
    80002b5c:	00d39393          	slli	t2,t2,0xd
    80002b60:	ef038393          	addi	t2,t2,-272
    80002b64:	567518e3          	bne	a0,t2,800038d4 <fail>

0000000080002b68 <test_20>:
    80002b68:	01400193          	li	gp,20
    80002b6c:	002475b7          	lui	a1,0x247
    80002b70:	8ad5859b          	addiw	a1,a1,-1875
    80002b74:	00e59593          	slli	a1,a1,0xe
    80002b78:	c4d58593          	addi	a1,a1,-947 # 246c4d <_start-0x7fdb93b3>
    80002b7c:	00c59593          	slli	a1,a1,0xc
    80002b80:	5e758593          	addi	a1,a1,1511
    80002b84:	00d59593          	slli	a1,a1,0xd
    80002b88:	ef058593          	addi	a1,a1,-272
    80002b8c:	00000613          	li	a2,0
    80002b90:	f20580d3          	fmv.d.x	ft1,a1
    80002b94:	f2060153          	fmv.d.x	ft2,a2
    80002b98:	22209053          	fsgnjn.d	ft0,ft1,ft2
    80002b9c:	e2000553          	fmv.x.d	a0,ft0
    80002ba0:	ff2473b7          	lui	t2,0xff247
    80002ba4:	8ad3839b          	addiw	t2,t2,-1875
    80002ba8:	00e39393          	slli	t2,t2,0xe
    80002bac:	c4d38393          	addi	t2,t2,-947 # ffffffffff246c4d <freelist_head+0xffffffff7f23dc45>
    80002bb0:	00c39393          	slli	t2,t2,0xc
    80002bb4:	5e738393          	addi	t2,t2,1511
    80002bb8:	00d39393          	slli	t2,t2,0xd
    80002bbc:	ef038393          	addi	t2,t2,-272
    80002bc0:	50751ae3          	bne	a0,t2,800038d4 <fail>

0000000080002bc4 <test_21>:
    80002bc4:	01500193          	li	gp,21
    80002bc8:	002475b7          	lui	a1,0x247
    80002bcc:	8ad5859b          	addiw	a1,a1,-1875
    80002bd0:	00e59593          	slli	a1,a1,0xe
    80002bd4:	c4d58593          	addi	a1,a1,-947 # 246c4d <_start-0x7fdb93b3>
    80002bd8:	00c59593          	slli	a1,a1,0xc
    80002bdc:	5e758593          	addi	a1,a1,1511
    80002be0:	00d59593          	slli	a1,a1,0xd
    80002be4:	ef058593          	addi	a1,a1,-272
    80002be8:	fff00613          	li	a2,-1
    80002bec:	f20580d3          	fmv.d.x	ft1,a1
    80002bf0:	f2060153          	fmv.d.x	ft2,a2
    80002bf4:	22209053          	fsgnjn.d	ft0,ft1,ft2
    80002bf8:	e2000553          	fmv.x.d	a0,ft0
    80002bfc:	002473b7          	lui	t2,0x247
    80002c00:	8ad3839b          	addiw	t2,t2,-1875
    80002c04:	00e39393          	slli	t2,t2,0xe
    80002c08:	c4d38393          	addi	t2,t2,-947 # 246c4d <_start-0x7fdb93b3>
    80002c0c:	00c39393          	slli	t2,t2,0xc
    80002c10:	5e738393          	addi	t2,t2,1511
    80002c14:	00d39393          	slli	t2,t2,0xd
    80002c18:	ef038393          	addi	t2,t2,-272
    80002c1c:	4a751ce3          	bne	a0,t2,800038d4 <fail>

0000000080002c20 <test_22>:
    80002c20:	01600193          	li	gp,22
    80002c24:	ff2475b7          	lui	a1,0xff247
    80002c28:	8ad5859b          	addiw	a1,a1,-1875
    80002c2c:	00e59593          	slli	a1,a1,0xe
    80002c30:	c4d58593          	addi	a1,a1,-947 # ffffffffff246c4d <freelist_head+0xffffffff7f23dc45>
    80002c34:	00c59593          	slli	a1,a1,0xc
    80002c38:	5e758593          	addi	a1,a1,1511
    80002c3c:	00d59593          	slli	a1,a1,0xd
    80002c40:	ef058593          	addi	a1,a1,-272
    80002c44:	00000613          	li	a2,0
    80002c48:	f20580d3          	fmv.d.x	ft1,a1
    80002c4c:	f2060153          	fmv.d.x	ft2,a2
    80002c50:	22209053          	fsgnjn.d	ft0,ft1,ft2
    80002c54:	e2000553          	fmv.x.d	a0,ft0
    80002c58:	ff2473b7          	lui	t2,0xff247
    80002c5c:	8ad3839b          	addiw	t2,t2,-1875
    80002c60:	00e39393          	slli	t2,t2,0xe
    80002c64:	c4d38393          	addi	t2,t2,-947 # ffffffffff246c4d <freelist_head+0xffffffff7f23dc45>
    80002c68:	00c39393          	slli	t2,t2,0xc
    80002c6c:	5e738393          	addi	t2,t2,1511
    80002c70:	00d39393          	slli	t2,t2,0xd
    80002c74:	ef038393          	addi	t2,t2,-272
    80002c78:	44751ee3          	bne	a0,t2,800038d4 <fail>

0000000080002c7c <test_23>:
    80002c7c:	01700193          	li	gp,23
    80002c80:	ff2475b7          	lui	a1,0xff247
    80002c84:	8ad5859b          	addiw	a1,a1,-1875
    80002c88:	00e59593          	slli	a1,a1,0xe
    80002c8c:	c4d58593          	addi	a1,a1,-947 # ffffffffff246c4d <freelist_head+0xffffffff7f23dc45>
    80002c90:	00c59593          	slli	a1,a1,0xc
    80002c94:	5e758593          	addi	a1,a1,1511
    80002c98:	00d59593          	slli	a1,a1,0xd
    80002c9c:	ef058593          	addi	a1,a1,-272
    80002ca0:	fff00613          	li	a2,-1
    80002ca4:	f20580d3          	fmv.d.x	ft1,a1
    80002ca8:	f2060153          	fmv.d.x	ft2,a2
    80002cac:	22209053          	fsgnjn.d	ft0,ft1,ft2
    80002cb0:	e2000553          	fmv.x.d	a0,ft0
    80002cb4:	002473b7          	lui	t2,0x247
    80002cb8:	8ad3839b          	addiw	t2,t2,-1875
    80002cbc:	00e39393          	slli	t2,t2,0xe
    80002cc0:	c4d38393          	addi	t2,t2,-947 # 246c4d <_start-0x7fdb93b3>
    80002cc4:	00c39393          	slli	t2,t2,0xc
    80002cc8:	5e738393          	addi	t2,t2,1511
    80002ccc:	00d39393          	slli	t2,t2,0xd
    80002cd0:	ef038393          	addi	t2,t2,-272
    80002cd4:	407510e3          	bne	a0,t2,800038d4 <fail>

0000000080002cd8 <test_30>:
    80002cd8:	01e00193          	li	gp,30
    80002cdc:	002475b7          	lui	a1,0x247
    80002ce0:	8ad5859b          	addiw	a1,a1,-1875
    80002ce4:	00e59593          	slli	a1,a1,0xe
    80002ce8:	c4d58593          	addi	a1,a1,-947 # 246c4d <_start-0x7fdb93b3>
    80002cec:	00c59593          	slli	a1,a1,0xc
    80002cf0:	5e758593          	addi	a1,a1,1511
    80002cf4:	00d59593          	slli	a1,a1,0xd
    80002cf8:	ef058593          	addi	a1,a1,-272
    80002cfc:	00000613          	li	a2,0
    80002d00:	f20580d3          	fmv.d.x	ft1,a1
    80002d04:	f2060153          	fmv.d.x	ft2,a2
    80002d08:	2220a053          	fsgnjx.d	ft0,ft1,ft2
    80002d0c:	e2000553          	fmv.x.d	a0,ft0
    80002d10:	002473b7          	lui	t2,0x247
    80002d14:	8ad3839b          	addiw	t2,t2,-1875
    80002d18:	00e39393          	slli	t2,t2,0xe
    80002d1c:	c4d38393          	addi	t2,t2,-947 # 246c4d <_start-0x7fdb93b3>
    80002d20:	00c39393          	slli	t2,t2,0xc
    80002d24:	5e738393          	addi	t2,t2,1511
    80002d28:	00d39393          	slli	t2,t2,0xd
    80002d2c:	ef038393          	addi	t2,t2,-272
    80002d30:	3a7512e3          	bne	a0,t2,800038d4 <fail>

0000000080002d34 <test_31>:
    80002d34:	01f00193          	li	gp,31
    80002d38:	002475b7          	lui	a1,0x247
    80002d3c:	8ad5859b          	addiw	a1,a1,-1875
    80002d40:	00e59593          	slli	a1,a1,0xe
    80002d44:	c4d58593          	addi	a1,a1,-947 # 246c4d <_start-0x7fdb93b3>
    80002d48:	00c59593          	slli	a1,a1,0xc
    80002d4c:	5e758593          	addi	a1,a1,1511
    80002d50:	00d59593          	slli	a1,a1,0xd
    80002d54:	ef058593          	addi	a1,a1,-272
    80002d58:	fff00613          	li	a2,-1
    80002d5c:	f20580d3          	fmv.d.x	ft1,a1
    80002d60:	f2060153          	fmv.d.x	ft2,a2
    80002d64:	2220a053          	fsgnjx.d	ft0,ft1,ft2
    80002d68:	e2000553          	fmv.x.d	a0,ft0
    80002d6c:	ff2473b7          	lui	t2,0xff247
    80002d70:	8ad3839b          	addiw	t2,t2,-1875
    80002d74:	00e39393          	slli	t2,t2,0xe
    80002d78:	c4d38393          	addi	t2,t2,-947 # ffffffffff246c4d <freelist_head+0xffffffff7f23dc45>
    80002d7c:	00c39393          	slli	t2,t2,0xc
    80002d80:	5e738393          	addi	t2,t2,1511
    80002d84:	00d39393          	slli	t2,t2,0xd
    80002d88:	ef038393          	addi	t2,t2,-272
    80002d8c:	347514e3          	bne	a0,t2,800038d4 <fail>

0000000080002d90 <test_32>:
    80002d90:	02000193          	li	gp,32
    80002d94:	ff2475b7          	lui	a1,0xff247
    80002d98:	8ad5859b          	addiw	a1,a1,-1875
    80002d9c:	00e59593          	slli	a1,a1,0xe
    80002da0:	c4d58593          	addi	a1,a1,-947 # ffffffffff246c4d <freelist_head+0xffffffff7f23dc45>
    80002da4:	00c59593          	slli	a1,a1,0xc
    80002da8:	5e758593          	addi	a1,a1,1511
    80002dac:	00d59593          	slli	a1,a1,0xd
    80002db0:	ef058593          	addi	a1,a1,-272
    80002db4:	00000613          	li	a2,0
    80002db8:	f20580d3          	fmv.d.x	ft1,a1
    80002dbc:	f2060153          	fmv.d.x	ft2,a2
    80002dc0:	2220a053          	fsgnjx.d	ft0,ft1,ft2
    80002dc4:	e2000553          	fmv.x.d	a0,ft0
    80002dc8:	ff2473b7          	lui	t2,0xff247
    80002dcc:	8ad3839b          	addiw	t2,t2,-1875
    80002dd0:	00e39393          	slli	t2,t2,0xe
    80002dd4:	c4d38393          	addi	t2,t2,-947 # ffffffffff246c4d <freelist_head+0xffffffff7f23dc45>
    80002dd8:	00c39393          	slli	t2,t2,0xc
    80002ddc:	5e738393          	addi	t2,t2,1511
    80002de0:	00d39393          	slli	t2,t2,0xd
    80002de4:	ef038393          	addi	t2,t2,-272
    80002de8:	2e7516e3          	bne	a0,t2,800038d4 <fail>

0000000080002dec <test_33>:
    80002dec:	02100193          	li	gp,33
    80002df0:	ff2475b7          	lui	a1,0xff247
    80002df4:	8ad5859b          	addiw	a1,a1,-1875
    80002df8:	00e59593          	slli	a1,a1,0xe
    80002dfc:	c4d58593          	addi	a1,a1,-947 # ffffffffff246c4d <freelist_head+0xffffffff7f23dc45>
    80002e00:	00c59593          	slli	a1,a1,0xc
    80002e04:	5e758593          	addi	a1,a1,1511
    80002e08:	00d59593          	slli	a1,a1,0xd
    80002e0c:	ef058593          	addi	a1,a1,-272
    80002e10:	fff00613          	li	a2,-1
    80002e14:	f20580d3          	fmv.d.x	ft1,a1
    80002e18:	f2060153          	fmv.d.x	ft2,a2
    80002e1c:	2220a053          	fsgnjx.d	ft0,ft1,ft2
    80002e20:	e2000553          	fmv.x.d	a0,ft0
    80002e24:	002473b7          	lui	t2,0x247
    80002e28:	8ad3839b          	addiw	t2,t2,-1875
    80002e2c:	00e39393          	slli	t2,t2,0xe
    80002e30:	c4d38393          	addi	t2,t2,-947 # 246c4d <_start-0x7fdb93b3>
    80002e34:	00c39393          	slli	t2,t2,0xc
    80002e38:	5e738393          	addi	t2,t2,1511
    80002e3c:	00d39393          	slli	t2,t2,0xd
    80002e40:	ef038393          	addi	t2,t2,-272
    80002e44:	287518e3          	bne	a0,t2,800038d4 <fail>

0000000080002e48 <test_40>:
    80002e48:	02800193          	li	gp,40
    80002e4c:	0010059b          	addiw	a1,zero,1
    80002e50:	02659593          	slli	a1,a1,0x26
    80002e54:	f0958593          	addi	a1,a1,-247
    80002e58:	00d59593          	slli	a1,a1,0xd
    80002e5c:	34558593          	addi	a1,a1,837
    80002e60:	00c59593          	slli	a1,a1,0xc
    80002e64:	67858593          	addi	a1,a1,1656
    80002e68:	00000613          	li	a2,0
    80002e6c:	f20580d3          	fmv.d.x	ft1,a1
    80002e70:	f2060153          	fmv.d.x	ft2,a2
    80002e74:	20208053          	fsgnj.s	ft0,ft1,ft2
    80002e78:	e0000553          	fmv.x.w	a0,ft0
    80002e7c:	7fc003b7          	lui	t2,0x7fc00
    80002e80:	24751ae3          	bne	a0,t2,800038d4 <fail>

0000000080002e84 <test_140>:
    80002e84:	08c00193          	li	gp,140
    80002e88:	0010059b          	addiw	a1,zero,1
    80002e8c:	02659593          	slli	a1,a1,0x26
    80002e90:	f0958593          	addi	a1,a1,-247
    80002e94:	00d59593          	slli	a1,a1,0xd
    80002e98:	34558593          	addi	a1,a1,837
    80002e9c:	00c59593          	slli	a1,a1,0xc
    80002ea0:	67858593          	addi	a1,a1,1656
    80002ea4:	00000613          	li	a2,0
    80002ea8:	f20580d3          	fmv.d.x	ft1,a1
    80002eac:	f2060153          	fmv.d.x	ft2,a2
    80002eb0:	20208053          	fsgnj.s	ft0,ft1,ft2
    80002eb4:	e2000553          	fmv.x.d	a0,ft0
    80002eb8:	dff0039b          	addiw	t2,zero,-513
    80002ebc:	01639393          	slli	t2,t2,0x16
    80002ec0:	20751ae3          	bne	a0,t2,800038d4 <fail>

0000000080002ec4 <test_41>:
    80002ec4:	02900193          	li	gp,41
    80002ec8:	ffe125b7          	lui	a1,0xffe12
    80002ecc:	3455859b          	addiw	a1,a1,837
    80002ed0:	00c59593          	slli	a1,a1,0xc
    80002ed4:	67858593          	addi	a1,a1,1656 # ffffffffffe12678 <freelist_head+0xffffffff7fe09670>
    80002ed8:	00000613          	li	a2,0
    80002edc:	f20580d3          	fmv.d.x	ft1,a1
    80002ee0:	f2060153          	fmv.d.x	ft2,a2
    80002ee4:	20208053          	fsgnj.s	ft0,ft1,ft2
    80002ee8:	e0000553          	fmv.x.w	a0,ft0
    80002eec:	7fc003b7          	lui	t2,0x7fc00
    80002ef0:	1e7512e3          	bne	a0,t2,800038d4 <fail>

0000000080002ef4 <test_141>:
    80002ef4:	08d00193          	li	gp,141
    80002ef8:	ffe125b7          	lui	a1,0xffe12
    80002efc:	3455859b          	addiw	a1,a1,837
    80002f00:	00c59593          	slli	a1,a1,0xc
    80002f04:	67858593          	addi	a1,a1,1656 # ffffffffffe12678 <freelist_head+0xffffffff7fe09670>
    80002f08:	00000613          	li	a2,0
    80002f0c:	f20580d3          	fmv.d.x	ft1,a1
    80002f10:	f2060153          	fmv.d.x	ft2,a2
    80002f14:	20208053          	fsgnj.s	ft0,ft1,ft2
    80002f18:	e2000553          	fmv.x.d	a0,ft0
    80002f1c:	dff0039b          	addiw	t2,zero,-513
    80002f20:	01639393          	slli	t2,t2,0x16
    80002f24:	1a7518e3          	bne	a0,t2,800038d4 <fail>

0000000080002f28 <test_42>:
    80002f28:	02a00193          	li	gp,42
    80002f2c:	0010059b          	addiw	a1,zero,1
    80002f30:	02659593          	slli	a1,a1,0x26
    80002f34:	f8958593          	addi	a1,a1,-119
    80002f38:	00d59593          	slli	a1,a1,0xd
    80002f3c:	34558593          	addi	a1,a1,837
    80002f40:	00c59593          	slli	a1,a1,0xc
    80002f44:	67858593          	addi	a1,a1,1656
    80002f48:	00000613          	li	a2,0
    80002f4c:	f20580d3          	fmv.d.x	ft1,a1
    80002f50:	f2060153          	fmv.d.x	ft2,a2
    80002f54:	20208053          	fsgnj.s	ft0,ft1,ft2
    80002f58:	e0000553          	fmv.x.w	a0,ft0
    80002f5c:	7fc003b7          	lui	t2,0x7fc00
    80002f60:	16751ae3          	bne	a0,t2,800038d4 <fail>

0000000080002f64 <test_142>:
    80002f64:	08e00193          	li	gp,142
    80002f68:	0010059b          	addiw	a1,zero,1
    80002f6c:	02659593          	slli	a1,a1,0x26
    80002f70:	f8958593          	addi	a1,a1,-119
    80002f74:	00d59593          	slli	a1,a1,0xd
    80002f78:	34558593          	addi	a1,a1,837
    80002f7c:	00c59593          	slli	a1,a1,0xc
    80002f80:	67858593          	addi	a1,a1,1656
    80002f84:	00000613          	li	a2,0
    80002f88:	f20580d3          	fmv.d.x	ft1,a1
    80002f8c:	f2060153          	fmv.d.x	ft2,a2
    80002f90:	20208053          	fsgnj.s	ft0,ft1,ft2
    80002f94:	e2000553          	fmv.x.d	a0,ft0
    80002f98:	dff0039b          	addiw	t2,zero,-513
    80002f9c:	01639393          	slli	t2,t2,0x16
    80002fa0:	12751ae3          	bne	a0,t2,800038d4 <fail>

0000000080002fa4 <test_43>:
    80002fa4:	02b00193          	li	gp,43
    80002fa8:	fff125b7          	lui	a1,0xfff12
    80002fac:	3455859b          	addiw	a1,a1,837
    80002fb0:	00c59593          	slli	a1,a1,0xc
    80002fb4:	67858593          	addi	a1,a1,1656 # fffffffffff12678 <freelist_head+0xffffffff7ff09670>
    80002fb8:	00000613          	li	a2,0
    80002fbc:	f20580d3          	fmv.d.x	ft1,a1
    80002fc0:	f2060153          	fmv.d.x	ft2,a2
    80002fc4:	20208053          	fsgnj.s	ft0,ft1,ft2
    80002fc8:	e0000553          	fmv.x.w	a0,ft0
    80002fcc:	123453b7          	lui	t2,0x12345
    80002fd0:	6783839b          	addiw	t2,t2,1656
    80002fd4:	107510e3          	bne	a0,t2,800038d4 <fail>

0000000080002fd8 <test_143>:
    80002fd8:	08f00193          	li	gp,143
    80002fdc:	fff125b7          	lui	a1,0xfff12
    80002fe0:	3455859b          	addiw	a1,a1,837
    80002fe4:	00c59593          	slli	a1,a1,0xc
    80002fe8:	67858593          	addi	a1,a1,1656 # fffffffffff12678 <freelist_head+0xffffffff7ff09670>
    80002fec:	00000613          	li	a2,0
    80002ff0:	f20580d3          	fmv.d.x	ft1,a1
    80002ff4:	f2060153          	fmv.d.x	ft2,a2
    80002ff8:	20208053          	fsgnj.s	ft0,ft1,ft2
    80002ffc:	e2000553          	fmv.x.d	a0,ft0
    80003000:	fff123b7          	lui	t2,0xfff12
    80003004:	3453839b          	addiw	t2,t2,837
    80003008:	00c39393          	slli	t2,t2,0xc
    8000300c:	67838393          	addi	t2,t2,1656 # fffffffffff12678 <freelist_head+0xffffffff7ff09670>
    80003010:	0c7512e3          	bne	a0,t2,800038d4 <fail>

0000000080003014 <test_50>:
    80003014:	03200193          	li	gp,50
    80003018:	0010059b          	addiw	a1,zero,1
    8000301c:	02659593          	slli	a1,a1,0x26
    80003020:	f0958593          	addi	a1,a1,-247
    80003024:	00d59593          	slli	a1,a1,0xd
    80003028:	34558593          	addi	a1,a1,837
    8000302c:	00c59593          	slli	a1,a1,0xc
    80003030:	67858593          	addi	a1,a1,1656
    80003034:	0010061b          	addiw	a2,zero,1
    80003038:	01f61613          	slli	a2,a2,0x1f
    8000303c:	f20580d3          	fmv.d.x	ft1,a1
    80003040:	f2060153          	fmv.d.x	ft2,a2
    80003044:	20208053          	fsgnj.s	ft0,ft1,ft2
    80003048:	e0000553          	fmv.x.w	a0,ft0
    8000304c:	7fc003b7          	lui	t2,0x7fc00
    80003050:	087512e3          	bne	a0,t2,800038d4 <fail>

0000000080003054 <test_150>:
    80003054:	09600193          	li	gp,150
    80003058:	0010059b          	addiw	a1,zero,1
    8000305c:	02659593          	slli	a1,a1,0x26
    80003060:	f0958593          	addi	a1,a1,-247
    80003064:	00d59593          	slli	a1,a1,0xd
    80003068:	34558593          	addi	a1,a1,837
    8000306c:	00c59593          	slli	a1,a1,0xc
    80003070:	67858593          	addi	a1,a1,1656
    80003074:	0010061b          	addiw	a2,zero,1
    80003078:	01f61613          	slli	a2,a2,0x1f
    8000307c:	f20580d3          	fmv.d.x	ft1,a1
    80003080:	f2060153          	fmv.d.x	ft2,a2
    80003084:	20208053          	fsgnj.s	ft0,ft1,ft2
    80003088:	e2000553          	fmv.x.d	a0,ft0
    8000308c:	dff0039b          	addiw	t2,zero,-513
    80003090:	01639393          	slli	t2,t2,0x16
    80003094:	047510e3          	bne	a0,t2,800038d4 <fail>

0000000080003098 <test_51>:
    80003098:	03300193          	li	gp,51
    8000309c:	ffe125b7          	lui	a1,0xffe12
    800030a0:	3455859b          	addiw	a1,a1,837
    800030a4:	00c59593          	slli	a1,a1,0xc
    800030a8:	67858593          	addi	a1,a1,1656 # ffffffffffe12678 <freelist_head+0xffffffff7fe09670>
    800030ac:	0010061b          	addiw	a2,zero,1
    800030b0:	01f61613          	slli	a2,a2,0x1f
    800030b4:	f20580d3          	fmv.d.x	ft1,a1
    800030b8:	f2060153          	fmv.d.x	ft2,a2
    800030bc:	20208053          	fsgnj.s	ft0,ft1,ft2
    800030c0:	e0000553          	fmv.x.w	a0,ft0
    800030c4:	7fc003b7          	lui	t2,0x7fc00
    800030c8:	007516e3          	bne	a0,t2,800038d4 <fail>

00000000800030cc <test_151>:
    800030cc:	09700193          	li	gp,151
    800030d0:	ffe125b7          	lui	a1,0xffe12
    800030d4:	3455859b          	addiw	a1,a1,837
    800030d8:	00c59593          	slli	a1,a1,0xc
    800030dc:	67858593          	addi	a1,a1,1656 # ffffffffffe12678 <freelist_head+0xffffffff7fe09670>
    800030e0:	0010061b          	addiw	a2,zero,1
    800030e4:	01f61613          	slli	a2,a2,0x1f
    800030e8:	f20580d3          	fmv.d.x	ft1,a1
    800030ec:	f2060153          	fmv.d.x	ft2,a2
    800030f0:	20208053          	fsgnj.s	ft0,ft1,ft2
    800030f4:	e2000553          	fmv.x.d	a0,ft0
    800030f8:	dff0039b          	addiw	t2,zero,-513
    800030fc:	01639393          	slli	t2,t2,0x16
    80003100:	7c751a63          	bne	a0,t2,800038d4 <fail>

0000000080003104 <test_52>:
    80003104:	03400193          	li	gp,52
    80003108:	0010059b          	addiw	a1,zero,1
    8000310c:	02659593          	slli	a1,a1,0x26
    80003110:	f8958593          	addi	a1,a1,-119
    80003114:	00d59593          	slli	a1,a1,0xd
    80003118:	34558593          	addi	a1,a1,837
    8000311c:	00c59593          	slli	a1,a1,0xc
    80003120:	67858593          	addi	a1,a1,1656
    80003124:	0010061b          	addiw	a2,zero,1
    80003128:	01f61613          	slli	a2,a2,0x1f
    8000312c:	f20580d3          	fmv.d.x	ft1,a1
    80003130:	f2060153          	fmv.d.x	ft2,a2
    80003134:	20208053          	fsgnj.s	ft0,ft1,ft2
    80003138:	e0000553          	fmv.x.w	a0,ft0
    8000313c:	7fc003b7          	lui	t2,0x7fc00
    80003140:	78751a63          	bne	a0,t2,800038d4 <fail>

0000000080003144 <test_152>:
    80003144:	09800193          	li	gp,152
    80003148:	0010059b          	addiw	a1,zero,1
    8000314c:	02659593          	slli	a1,a1,0x26
    80003150:	f8958593          	addi	a1,a1,-119
    80003154:	00d59593          	slli	a1,a1,0xd
    80003158:	34558593          	addi	a1,a1,837
    8000315c:	00c59593          	slli	a1,a1,0xc
    80003160:	67858593          	addi	a1,a1,1656
    80003164:	0010061b          	addiw	a2,zero,1
    80003168:	01f61613          	slli	a2,a2,0x1f
    8000316c:	f20580d3          	fmv.d.x	ft1,a1
    80003170:	f2060153          	fmv.d.x	ft2,a2
    80003174:	20208053          	fsgnj.s	ft0,ft1,ft2
    80003178:	e2000553          	fmv.x.d	a0,ft0
    8000317c:	dff0039b          	addiw	t2,zero,-513
    80003180:	01639393          	slli	t2,t2,0x16
    80003184:	74751863          	bne	a0,t2,800038d4 <fail>

0000000080003188 <test_53>:
    80003188:	03500193          	li	gp,53
    8000318c:	fff125b7          	lui	a1,0xfff12
    80003190:	3455859b          	addiw	a1,a1,837
    80003194:	00c59593          	slli	a1,a1,0xc
    80003198:	67858593          	addi	a1,a1,1656 # fffffffffff12678 <freelist_head+0xffffffff7ff09670>
    8000319c:	0010061b          	addiw	a2,zero,1
    800031a0:	01f61613          	slli	a2,a2,0x1f
    800031a4:	f20580d3          	fmv.d.x	ft1,a1
    800031a8:	f2060153          	fmv.d.x	ft2,a2
    800031ac:	20208053          	fsgnj.s	ft0,ft1,ft2
    800031b0:	e0000553          	fmv.x.w	a0,ft0
    800031b4:	123453b7          	lui	t2,0x12345
    800031b8:	6783839b          	addiw	t2,t2,1656
    800031bc:	70751c63          	bne	a0,t2,800038d4 <fail>

00000000800031c0 <test_153>:
    800031c0:	09900193          	li	gp,153
    800031c4:	fff125b7          	lui	a1,0xfff12
    800031c8:	3455859b          	addiw	a1,a1,837
    800031cc:	00c59593          	slli	a1,a1,0xc
    800031d0:	67858593          	addi	a1,a1,1656 # fffffffffff12678 <freelist_head+0xffffffff7ff09670>
    800031d4:	0010061b          	addiw	a2,zero,1
    800031d8:	01f61613          	slli	a2,a2,0x1f
    800031dc:	f20580d3          	fmv.d.x	ft1,a1
    800031e0:	f2060153          	fmv.d.x	ft2,a2
    800031e4:	20208053          	fsgnj.s	ft0,ft1,ft2
    800031e8:	e2000553          	fmv.x.d	a0,ft0
    800031ec:	fff123b7          	lui	t2,0xfff12
    800031f0:	3453839b          	addiw	t2,t2,837
    800031f4:	00c39393          	slli	t2,t2,0xc
    800031f8:	67838393          	addi	t2,t2,1656 # fffffffffff12678 <freelist_head+0xffffffff7ff09670>
    800031fc:	6c751c63          	bne	a0,t2,800038d4 <fail>

0000000080003200 <test_60>:
    80003200:	03c00193          	li	gp,60
    80003204:	0010059b          	addiw	a1,zero,1
    80003208:	02659593          	slli	a1,a1,0x26
    8000320c:	f0958593          	addi	a1,a1,-247
    80003210:	00d59593          	slli	a1,a1,0xd
    80003214:	34558593          	addi	a1,a1,837
    80003218:	00c59593          	slli	a1,a1,0xc
    8000321c:	67858593          	addi	a1,a1,1656
    80003220:	80000637          	lui	a2,0x80000
    80003224:	f20580d3          	fmv.d.x	ft1,a1
    80003228:	f2060153          	fmv.d.x	ft2,a2
    8000322c:	20208053          	fsgnj.s	ft0,ft1,ft2
    80003230:	e0000553          	fmv.x.w	a0,ft0
    80003234:	ffc003b7          	lui	t2,0xffc00
    80003238:	68751e63          	bne	a0,t2,800038d4 <fail>

000000008000323c <test_160>:
    8000323c:	0a000193          	li	gp,160
    80003240:	0010059b          	addiw	a1,zero,1
    80003244:	02659593          	slli	a1,a1,0x26
    80003248:	f0958593          	addi	a1,a1,-247
    8000324c:	00d59593          	slli	a1,a1,0xd
    80003250:	34558593          	addi	a1,a1,837
    80003254:	00c59593          	slli	a1,a1,0xc
    80003258:	67858593          	addi	a1,a1,1656
    8000325c:	80000637          	lui	a2,0x80000
    80003260:	f20580d3          	fmv.d.x	ft1,a1
    80003264:	f2060153          	fmv.d.x	ft2,a2
    80003268:	20208053          	fsgnj.s	ft0,ft1,ft2
    8000326c:	e2000553          	fmv.x.d	a0,ft0
    80003270:	ffc003b7          	lui	t2,0xffc00
    80003274:	66751063          	bne	a0,t2,800038d4 <fail>

0000000080003278 <test_61>:
    80003278:	03d00193          	li	gp,61
    8000327c:	ffe125b7          	lui	a1,0xffe12
    80003280:	3455859b          	addiw	a1,a1,837
    80003284:	00c59593          	slli	a1,a1,0xc
    80003288:	67858593          	addi	a1,a1,1656 # ffffffffffe12678 <freelist_head+0xffffffff7fe09670>
    8000328c:	80000637          	lui	a2,0x80000
    80003290:	f20580d3          	fmv.d.x	ft1,a1
    80003294:	f2060153          	fmv.d.x	ft2,a2
    80003298:	20208053          	fsgnj.s	ft0,ft1,ft2
    8000329c:	e0000553          	fmv.x.w	a0,ft0
    800032a0:	ffc003b7          	lui	t2,0xffc00
    800032a4:	62751863          	bne	a0,t2,800038d4 <fail>

00000000800032a8 <test_161>:
    800032a8:	0a100193          	li	gp,161
    800032ac:	ffe125b7          	lui	a1,0xffe12
    800032b0:	3455859b          	addiw	a1,a1,837
    800032b4:	00c59593          	slli	a1,a1,0xc
    800032b8:	67858593          	addi	a1,a1,1656 # ffffffffffe12678 <freelist_head+0xffffffff7fe09670>
    800032bc:	80000637          	lui	a2,0x80000
    800032c0:	f20580d3          	fmv.d.x	ft1,a1
    800032c4:	f2060153          	fmv.d.x	ft2,a2
    800032c8:	20208053          	fsgnj.s	ft0,ft1,ft2
    800032cc:	e2000553          	fmv.x.d	a0,ft0
    800032d0:	ffc003b7          	lui	t2,0xffc00
    800032d4:	60751063          	bne	a0,t2,800038d4 <fail>

00000000800032d8 <test_62>:
    800032d8:	03e00193          	li	gp,62
    800032dc:	fff125b7          	lui	a1,0xfff12
    800032e0:	3455859b          	addiw	a1,a1,837
    800032e4:	00c59593          	slli	a1,a1,0xc
    800032e8:	67858593          	addi	a1,a1,1656 # fffffffffff12678 <freelist_head+0xffffffff7ff09670>
    800032ec:	80000637          	lui	a2,0x80000
    800032f0:	f20580d3          	fmv.d.x	ft1,a1
    800032f4:	f2060153          	fmv.d.x	ft2,a2
    800032f8:	20208053          	fsgnj.s	ft0,ft1,ft2
    800032fc:	e0000553          	fmv.x.w	a0,ft0
    80003300:	923453b7          	lui	t2,0x92345
    80003304:	6783839b          	addiw	t2,t2,1656
    80003308:	5c751663          	bne	a0,t2,800038d4 <fail>

000000008000330c <test_162>:
    8000330c:	0a200193          	li	gp,162
    80003310:	fff125b7          	lui	a1,0xfff12
    80003314:	3455859b          	addiw	a1,a1,837
    80003318:	00c59593          	slli	a1,a1,0xc
    8000331c:	67858593          	addi	a1,a1,1656 # fffffffffff12678 <freelist_head+0xffffffff7ff09670>
    80003320:	80000637          	lui	a2,0x80000
    80003324:	f20580d3          	fmv.d.x	ft1,a1
    80003328:	f2060153          	fmv.d.x	ft2,a2
    8000332c:	20208053          	fsgnj.s	ft0,ft1,ft2
    80003330:	e2000553          	fmv.x.d	a0,ft0
    80003334:	923453b7          	lui	t2,0x92345
    80003338:	6783839b          	addiw	t2,t2,1656
    8000333c:	58751c63          	bne	a0,t2,800038d4 <fail>

0000000080003340 <test_63>:
    80003340:	03f00193          	li	gp,63
    80003344:	fff125b7          	lui	a1,0xfff12
    80003348:	3455859b          	addiw	a1,a1,837
    8000334c:	00c59593          	slli	a1,a1,0xc
    80003350:	67858593          	addi	a1,a1,1656 # fffffffffff12678 <freelist_head+0xffffffff7ff09670>
    80003354:	0010061b          	addiw	a2,zero,1
    80003358:	02061613          	slli	a2,a2,0x20
    8000335c:	fff60613          	addi	a2,a2,-1 # ffffffff7fffffff <freelist_head+0xfffffffeffff6ff7>
    80003360:	01f61613          	slli	a2,a2,0x1f
    80003364:	f20580d3          	fmv.d.x	ft1,a1
    80003368:	f2060153          	fmv.d.x	ft2,a2
    8000336c:	20208053          	fsgnj.s	ft0,ft1,ft2
    80003370:	e0000553          	fmv.x.w	a0,ft0
    80003374:	123453b7          	lui	t2,0x12345
    80003378:	6783839b          	addiw	t2,t2,1656
    8000337c:	54751c63          	bne	a0,t2,800038d4 <fail>

0000000080003380 <test_163>:
    80003380:	0a300193          	li	gp,163
    80003384:	fff125b7          	lui	a1,0xfff12
    80003388:	3455859b          	addiw	a1,a1,837
    8000338c:	00c59593          	slli	a1,a1,0xc
    80003390:	67858593          	addi	a1,a1,1656 # fffffffffff12678 <freelist_head+0xffffffff7ff09670>
    80003394:	0010061b          	addiw	a2,zero,1
    80003398:	02061613          	slli	a2,a2,0x20
    8000339c:	fff60613          	addi	a2,a2,-1
    800033a0:	01f61613          	slli	a2,a2,0x1f
    800033a4:	f20580d3          	fmv.d.x	ft1,a1
    800033a8:	f2060153          	fmv.d.x	ft2,a2
    800033ac:	20208053          	fsgnj.s	ft0,ft1,ft2
    800033b0:	e2000553          	fmv.x.d	a0,ft0
    800033b4:	fff123b7          	lui	t2,0xfff12
    800033b8:	3453839b          	addiw	t2,t2,837
    800033bc:	00c39393          	slli	t2,t2,0xc
    800033c0:	67838393          	addi	t2,t2,1656 # fffffffffff12678 <freelist_head+0xffffffff7ff09670>
    800033c4:	50751863          	bne	a0,t2,800038d4 <fail>

00000000800033c8 <test_70>:
    800033c8:	04600193          	li	gp,70
    800033cc:	fff115b7          	lui	a1,0xfff11
    800033d0:	1115859b          	addiw	a1,a1,273
    800033d4:	00c59593          	slli	a1,a1,0xc
    800033d8:	11158593          	addi	a1,a1,273 # fffffffffff11111 <freelist_head+0xffffffff7ff08109>
    800033dc:	fff11637          	lui	a2,0xfff11
    800033e0:	1116061b          	addiw	a2,a2,273
    800033e4:	00c61613          	slli	a2,a2,0xc
    800033e8:	11160613          	addi	a2,a2,273 # fffffffffff11111 <freelist_head+0xffffffff7ff08109>
    800033ec:	f20580d3          	fmv.d.x	ft1,a1
    800033f0:	f2060153          	fmv.d.x	ft2,a2
    800033f4:	22208053          	fsgnj.d	ft0,ft1,ft2
    800033f8:	a0002553          	feq.s	a0,ft0,ft0
    800033fc:	fff50513          	addi	a0,a0,-1
    80003400:	00051463          	bnez	a0,80003408 <test_70+0x40>
    80003404:	e0000553          	fmv.x.w	a0,ft0
    80003408:	111113b7          	lui	t2,0x11111
    8000340c:	1113839b          	addiw	t2,t2,273
    80003410:	4c751263          	bne	a0,t2,800038d4 <fail>

0000000080003414 <test_170>:
    80003414:	0aa00193          	li	gp,170
    80003418:	fff115b7          	lui	a1,0xfff11
    8000341c:	1115859b          	addiw	a1,a1,273
    80003420:	00c59593          	slli	a1,a1,0xc
    80003424:	11158593          	addi	a1,a1,273 # fffffffffff11111 <freelist_head+0xffffffff7ff08109>
    80003428:	fff11637          	lui	a2,0xfff11
    8000342c:	1116061b          	addiw	a2,a2,273
    80003430:	00c61613          	slli	a2,a2,0xc
    80003434:	11160613          	addi	a2,a2,273 # fffffffffff11111 <freelist_head+0xffffffff7ff08109>
    80003438:	f20580d3          	fmv.d.x	ft1,a1
    8000343c:	f2060153          	fmv.d.x	ft2,a2
    80003440:	22208053          	fsgnj.d	ft0,ft1,ft2
    80003444:	e2000553          	fmv.x.d	a0,ft0
    80003448:	fff113b7          	lui	t2,0xfff11
    8000344c:	1113839b          	addiw	t2,t2,273
    80003450:	00c39393          	slli	t2,t2,0xc
    80003454:	11138393          	addi	t2,t2,273 # fffffffffff11111 <freelist_head+0xffffffff7ff08109>
    80003458:	46751e63          	bne	a0,t2,800038d4 <fail>

000000008000345c <test_71>:
    8000345c:	04700193          	li	gp,71
    80003460:	fff115b7          	lui	a1,0xfff11
    80003464:	1115859b          	addiw	a1,a1,273
    80003468:	00c59593          	slli	a1,a1,0xc
    8000346c:	11158593          	addi	a1,a1,273 # fffffffffff11111 <freelist_head+0xffffffff7ff08109>
    80003470:	0010061b          	addiw	a2,zero,1
    80003474:	02761613          	slli	a2,a2,0x27
    80003478:	f1160613          	addi	a2,a2,-239
    8000347c:	00c61613          	slli	a2,a2,0xc
    80003480:	11160613          	addi	a2,a2,273
    80003484:	00c61613          	slli	a2,a2,0xc
    80003488:	11160613          	addi	a2,a2,273
    8000348c:	f20580d3          	fmv.d.x	ft1,a1
    80003490:	f2060153          	fmv.d.x	ft2,a2
    80003494:	22208053          	fsgnj.d	ft0,ft1,ft2
    80003498:	a0002553          	feq.s	a0,ft0,ft0
    8000349c:	00050513          	mv	a0,a0
    800034a0:	00051463          	bnez	a0,800034a8 <test_71+0x4c>
    800034a4:	e0000553          	fmv.x.w	a0,ft0
    800034a8:	111113b7          	lui	t2,0x11111
    800034ac:	1113839b          	addiw	t2,t2,273
    800034b0:	42751263          	bne	a0,t2,800038d4 <fail>

00000000800034b4 <test_171>:
    800034b4:	0ab00193          	li	gp,171
    800034b8:	fff115b7          	lui	a1,0xfff11
    800034bc:	1115859b          	addiw	a1,a1,273
    800034c0:	00c59593          	slli	a1,a1,0xc
    800034c4:	11158593          	addi	a1,a1,273 # fffffffffff11111 <freelist_head+0xffffffff7ff08109>
    800034c8:	0010061b          	addiw	a2,zero,1
    800034cc:	02761613          	slli	a2,a2,0x27
    800034d0:	f1160613          	addi	a2,a2,-239
    800034d4:	00c61613          	slli	a2,a2,0xc
    800034d8:	11160613          	addi	a2,a2,273
    800034dc:	00c61613          	slli	a2,a2,0xc
    800034e0:	11160613          	addi	a2,a2,273
    800034e4:	f20580d3          	fmv.d.x	ft1,a1
    800034e8:	f2060153          	fmv.d.x	ft2,a2
    800034ec:	22208053          	fsgnj.d	ft0,ft1,ft2
    800034f0:	e2000553          	fmv.x.d	a0,ft0
    800034f4:	0010039b          	addiw	t2,zero,1
    800034f8:	02739393          	slli	t2,t2,0x27
    800034fc:	f1138393          	addi	t2,t2,-239 # 11110f11 <_start-0x6eeef0ef>
    80003500:	00c39393          	slli	t2,t2,0xc
    80003504:	11138393          	addi	t2,t2,273
    80003508:	00c39393          	slli	t2,t2,0xc
    8000350c:	11138393          	addi	t2,t2,273
    80003510:	3c751263          	bne	a0,t2,800038d4 <fail>

0000000080003514 <test_72>:
    80003514:	04800193          	li	gp,72
    80003518:	fff115b7          	lui	a1,0xfff11
    8000351c:	1115859b          	addiw	a1,a1,273
    80003520:	00c59593          	slli	a1,a1,0xc
    80003524:	11158593          	addi	a1,a1,273 # fffffffffff11111 <freelist_head+0xffffffff7ff08109>
    80003528:	91111637          	lui	a2,0x91111
    8000352c:	1116061b          	addiw	a2,a2,273
    80003530:	f20580d3          	fmv.d.x	ft1,a1
    80003534:	f2060153          	fmv.d.x	ft2,a2
    80003538:	22208053          	fsgnj.d	ft0,ft1,ft2
    8000353c:	a0002553          	feq.s	a0,ft0,ft0
    80003540:	fff50513          	addi	a0,a0,-1
    80003544:	00051463          	bnez	a0,8000354c <test_72+0x38>
    80003548:	e0000553          	fmv.x.w	a0,ft0
    8000354c:	111113b7          	lui	t2,0x11111
    80003550:	1113839b          	addiw	t2,t2,273
    80003554:	38751063          	bne	a0,t2,800038d4 <fail>

0000000080003558 <test_172>:
    80003558:	0ac00193          	li	gp,172
    8000355c:	fff115b7          	lui	a1,0xfff11
    80003560:	1115859b          	addiw	a1,a1,273
    80003564:	00c59593          	slli	a1,a1,0xc
    80003568:	11158593          	addi	a1,a1,273 # fffffffffff11111 <freelist_head+0xffffffff7ff08109>
    8000356c:	91111637          	lui	a2,0x91111
    80003570:	1116061b          	addiw	a2,a2,273
    80003574:	f20580d3          	fmv.d.x	ft1,a1
    80003578:	f2060153          	fmv.d.x	ft2,a2
    8000357c:	22208053          	fsgnj.d	ft0,ft1,ft2
    80003580:	e2000553          	fmv.x.d	a0,ft0
    80003584:	fff113b7          	lui	t2,0xfff11
    80003588:	1113839b          	addiw	t2,t2,273
    8000358c:	00c39393          	slli	t2,t2,0xc
    80003590:	11138393          	addi	t2,t2,273 # fffffffffff11111 <freelist_head+0xffffffff7ff08109>
    80003594:	34751063          	bne	a0,t2,800038d4 <fail>

0000000080003598 <test_73>:
    80003598:	04900193          	li	gp,73
    8000359c:	fff115b7          	lui	a1,0xfff11
    800035a0:	1115859b          	addiw	a1,a1,273
    800035a4:	00c59593          	slli	a1,a1,0xc
    800035a8:	11158593          	addi	a1,a1,273 # fffffffffff11111 <freelist_head+0xffffffff7ff08109>
    800035ac:	fff0061b          	addiw	a2,zero,-1
    800035b0:	03f61613          	slli	a2,a2,0x3f
    800035b4:	f20580d3          	fmv.d.x	ft1,a1
    800035b8:	f2060153          	fmv.d.x	ft2,a2
    800035bc:	22208053          	fsgnj.d	ft0,ft1,ft2
    800035c0:	a0002553          	feq.s	a0,ft0,ft0
    800035c4:	fff50513          	addi	a0,a0,-1
    800035c8:	00051463          	bnez	a0,800035d0 <test_73+0x38>
    800035cc:	e0000553          	fmv.x.w	a0,ft0
    800035d0:	111113b7          	lui	t2,0x11111
    800035d4:	1113839b          	addiw	t2,t2,273
    800035d8:	2e751e63          	bne	a0,t2,800038d4 <fail>

00000000800035dc <test_173>:
    800035dc:	0ad00193          	li	gp,173
    800035e0:	fff115b7          	lui	a1,0xfff11
    800035e4:	1115859b          	addiw	a1,a1,273
    800035e8:	00c59593          	slli	a1,a1,0xc
    800035ec:	11158593          	addi	a1,a1,273 # fffffffffff11111 <freelist_head+0xffffffff7ff08109>
    800035f0:	fff0061b          	addiw	a2,zero,-1
    800035f4:	03f61613          	slli	a2,a2,0x3f
    800035f8:	f20580d3          	fmv.d.x	ft1,a1
    800035fc:	f2060153          	fmv.d.x	ft2,a2
    80003600:	22208053          	fsgnj.d	ft0,ft1,ft2
    80003604:	e2000553          	fmv.x.d	a0,ft0
    80003608:	fff113b7          	lui	t2,0xfff11
    8000360c:	1113839b          	addiw	t2,t2,273
    80003610:	00c39393          	slli	t2,t2,0xc
    80003614:	11138393          	addi	t2,t2,273 # fffffffffff11111 <freelist_head+0xffffffff7ff08109>
    80003618:	2a751e63          	bne	a0,t2,800038d4 <fail>

000000008000361c <test_74>:
    8000361c:	04a00193          	li	gp,74
    80003620:	0010059b          	addiw	a1,zero,1
    80003624:	02759593          	slli	a1,a1,0x27
    80003628:	f1158593          	addi	a1,a1,-239
    8000362c:	00c59593          	slli	a1,a1,0xc
    80003630:	11158593          	addi	a1,a1,273
    80003634:	00c59593          	slli	a1,a1,0xc
    80003638:	11158593          	addi	a1,a1,273
    8000363c:	fff11637          	lui	a2,0xfff11
    80003640:	1116061b          	addiw	a2,a2,273
    80003644:	00c61613          	slli	a2,a2,0xc
    80003648:	11160613          	addi	a2,a2,273 # fffffffffff11111 <freelist_head+0xffffffff7ff08109>
    8000364c:	f20580d3          	fmv.d.x	ft1,a1
    80003650:	f2060153          	fmv.d.x	ft2,a2
    80003654:	22208053          	fsgnj.d	ft0,ft1,ft2
    80003658:	a0002553          	feq.s	a0,ft0,ft0
    8000365c:	fff50513          	addi	a0,a0,-1
    80003660:	00051463          	bnez	a0,80003668 <test_74+0x4c>
    80003664:	e0000553          	fmv.x.w	a0,ft0
    80003668:	111113b7          	lui	t2,0x11111
    8000366c:	1113839b          	addiw	t2,t2,273
    80003670:	26751263          	bne	a0,t2,800038d4 <fail>

0000000080003674 <test_174>:
    80003674:	0ae00193          	li	gp,174
    80003678:	0010059b          	addiw	a1,zero,1
    8000367c:	02759593          	slli	a1,a1,0x27
    80003680:	f1158593          	addi	a1,a1,-239
    80003684:	00c59593          	slli	a1,a1,0xc
    80003688:	11158593          	addi	a1,a1,273
    8000368c:	00c59593          	slli	a1,a1,0xc
    80003690:	11158593          	addi	a1,a1,273
    80003694:	fff11637          	lui	a2,0xfff11
    80003698:	1116061b          	addiw	a2,a2,273
    8000369c:	00c61613          	slli	a2,a2,0xc
    800036a0:	11160613          	addi	a2,a2,273 # fffffffffff11111 <freelist_head+0xffffffff7ff08109>
    800036a4:	f20580d3          	fmv.d.x	ft1,a1
    800036a8:	f2060153          	fmv.d.x	ft2,a2
    800036ac:	22208053          	fsgnj.d	ft0,ft1,ft2
    800036b0:	e2000553          	fmv.x.d	a0,ft0
    800036b4:	fff113b7          	lui	t2,0xfff11
    800036b8:	1113839b          	addiw	t2,t2,273
    800036bc:	00c39393          	slli	t2,t2,0xc
    800036c0:	11138393          	addi	t2,t2,273 # fffffffffff11111 <freelist_head+0xffffffff7ff08109>
    800036c4:	20751863          	bne	a0,t2,800038d4 <fail>

00000000800036c8 <test_75>:
    800036c8:	04b00193          	li	gp,75
    800036cc:	0010059b          	addiw	a1,zero,1
    800036d0:	02759593          	slli	a1,a1,0x27
    800036d4:	f1158593          	addi	a1,a1,-239
    800036d8:	00c59593          	slli	a1,a1,0xc
    800036dc:	11158593          	addi	a1,a1,273
    800036e0:	00c59593          	slli	a1,a1,0xc
    800036e4:	11158593          	addi	a1,a1,273
    800036e8:	0010061b          	addiw	a2,zero,1
    800036ec:	02761613          	slli	a2,a2,0x27
    800036f0:	f1160613          	addi	a2,a2,-239
    800036f4:	00c61613          	slli	a2,a2,0xc
    800036f8:	11160613          	addi	a2,a2,273
    800036fc:	00c61613          	slli	a2,a2,0xc
    80003700:	11160613          	addi	a2,a2,273
    80003704:	f20580d3          	fmv.d.x	ft1,a1
    80003708:	f2060153          	fmv.d.x	ft2,a2
    8000370c:	22208053          	fsgnj.d	ft0,ft1,ft2
    80003710:	a0002553          	feq.s	a0,ft0,ft0
    80003714:	00050513          	mv	a0,a0
    80003718:	00051463          	bnez	a0,80003720 <test_75+0x58>
    8000371c:	e0000553          	fmv.x.w	a0,ft0
    80003720:	111113b7          	lui	t2,0x11111
    80003724:	1113839b          	addiw	t2,t2,273
    80003728:	1a751663          	bne	a0,t2,800038d4 <fail>

000000008000372c <test_175>:
    8000372c:	0af00193          	li	gp,175
    80003730:	0010059b          	addiw	a1,zero,1
    80003734:	02759593          	slli	a1,a1,0x27
    80003738:	f1158593          	addi	a1,a1,-239
    8000373c:	00c59593          	slli	a1,a1,0xc
    80003740:	11158593          	addi	a1,a1,273
    80003744:	00c59593          	slli	a1,a1,0xc
    80003748:	11158593          	addi	a1,a1,273
    8000374c:	0010061b          	addiw	a2,zero,1
    80003750:	02761613          	slli	a2,a2,0x27
    80003754:	f1160613          	addi	a2,a2,-239
    80003758:	00c61613          	slli	a2,a2,0xc
    8000375c:	11160613          	addi	a2,a2,273
    80003760:	00c61613          	slli	a2,a2,0xc
    80003764:	11160613          	addi	a2,a2,273
    80003768:	f20580d3          	fmv.d.x	ft1,a1
    8000376c:	f2060153          	fmv.d.x	ft2,a2
    80003770:	22208053          	fsgnj.d	ft0,ft1,ft2
    80003774:	e2000553          	fmv.x.d	a0,ft0
    80003778:	0010039b          	addiw	t2,zero,1
    8000377c:	02739393          	slli	t2,t2,0x27
    80003780:	f1138393          	addi	t2,t2,-239 # 11110f11 <_start-0x6eeef0ef>
    80003784:	00c39393          	slli	t2,t2,0xc
    80003788:	11138393          	addi	t2,t2,273
    8000378c:	00c39393          	slli	t2,t2,0xc
    80003790:	11138393          	addi	t2,t2,273
    80003794:	14751063          	bne	a0,t2,800038d4 <fail>

0000000080003798 <test_76>:
    80003798:	04c00193          	li	gp,76
    8000379c:	0010059b          	addiw	a1,zero,1
    800037a0:	02759593          	slli	a1,a1,0x27
    800037a4:	f1158593          	addi	a1,a1,-239
    800037a8:	00c59593          	slli	a1,a1,0xc
    800037ac:	11158593          	addi	a1,a1,273
    800037b0:	00c59593          	slli	a1,a1,0xc
    800037b4:	11158593          	addi	a1,a1,273
    800037b8:	91111637          	lui	a2,0x91111
    800037bc:	1116061b          	addiw	a2,a2,273
    800037c0:	f20580d3          	fmv.d.x	ft1,a1
    800037c4:	f2060153          	fmv.d.x	ft2,a2
    800037c8:	22208053          	fsgnj.d	ft0,ft1,ft2
    800037cc:	a0002553          	feq.s	a0,ft0,ft0
    800037d0:	fff50513          	addi	a0,a0,-1
    800037d4:	00051463          	bnez	a0,800037dc <test_76+0x44>
    800037d8:	e0000553          	fmv.x.w	a0,ft0
    800037dc:	111113b7          	lui	t2,0x11111
    800037e0:	1113839b          	addiw	t2,t2,273
    800037e4:	0e751863          	bne	a0,t2,800038d4 <fail>

00000000800037e8 <test_176>:
    800037e8:	0b000193          	li	gp,176
    800037ec:	0010059b          	addiw	a1,zero,1
    800037f0:	02759593          	slli	a1,a1,0x27
    800037f4:	f1158593          	addi	a1,a1,-239
    800037f8:	00c59593          	slli	a1,a1,0xc
    800037fc:	11158593          	addi	a1,a1,273
    80003800:	00c59593          	slli	a1,a1,0xc
    80003804:	11158593          	addi	a1,a1,273
    80003808:	91111637          	lui	a2,0x91111
    8000380c:	1116061b          	addiw	a2,a2,273
    80003810:	f20580d3          	fmv.d.x	ft1,a1
    80003814:	f2060153          	fmv.d.x	ft2,a2
    80003818:	22208053          	fsgnj.d	ft0,ft1,ft2
    8000381c:	e2000553          	fmv.x.d	a0,ft0
    80003820:	fff113b7          	lui	t2,0xfff11
    80003824:	1113839b          	addiw	t2,t2,273
    80003828:	00c39393          	slli	t2,t2,0xc
    8000382c:	11138393          	addi	t2,t2,273 # fffffffffff11111 <freelist_head+0xffffffff7ff08109>
    80003830:	0a751263          	bne	a0,t2,800038d4 <fail>

0000000080003834 <test_77>:
    80003834:	04d00193          	li	gp,77
    80003838:	0010059b          	addiw	a1,zero,1
    8000383c:	02759593          	slli	a1,a1,0x27
    80003840:	f1158593          	addi	a1,a1,-239
    80003844:	00c59593          	slli	a1,a1,0xc
    80003848:	11158593          	addi	a1,a1,273
    8000384c:	00c59593          	slli	a1,a1,0xc
    80003850:	11158593          	addi	a1,a1,273
    80003854:	fff0061b          	addiw	a2,zero,-1
    80003858:	03f61613          	slli	a2,a2,0x3f
    8000385c:	f20580d3          	fmv.d.x	ft1,a1
    80003860:	f2060153          	fmv.d.x	ft2,a2
    80003864:	22208053          	fsgnj.d	ft0,ft1,ft2
    80003868:	a0002553          	feq.s	a0,ft0,ft0
    8000386c:	fff50513          	addi	a0,a0,-1
    80003870:	00051463          	bnez	a0,80003878 <test_77+0x44>
    80003874:	e0000553          	fmv.x.w	a0,ft0
    80003878:	111113b7          	lui	t2,0x11111
    8000387c:	1113839b          	addiw	t2,t2,273
    80003880:	04751a63          	bne	a0,t2,800038d4 <fail>

0000000080003884 <test_177>:
    80003884:	0b100193          	li	gp,177
    80003888:	0010059b          	addiw	a1,zero,1
    8000388c:	02759593          	slli	a1,a1,0x27
    80003890:	f1158593          	addi	a1,a1,-239
    80003894:	00c59593          	slli	a1,a1,0xc
    80003898:	11158593          	addi	a1,a1,273
    8000389c:	00c59593          	slli	a1,a1,0xc
    800038a0:	11158593          	addi	a1,a1,273
    800038a4:	fff0061b          	addiw	a2,zero,-1
    800038a8:	03f61613          	slli	a2,a2,0x3f
    800038ac:	f20580d3          	fmv.d.x	ft1,a1
    800038b0:	f2060153          	fmv.d.x	ft2,a2
    800038b4:	22208053          	fsgnj.d	ft0,ft1,ft2
    800038b8:	e2000553          	fmv.x.d	a0,ft0
    800038bc:	fff113b7          	lui	t2,0xfff11
    800038c0:	1113839b          	addiw	t2,t2,273
    800038c4:	00c39393          	slli	t2,t2,0xc
    800038c8:	11138393          	addi	t2,t2,273 # fffffffffff11111 <freelist_head+0xffffffff7ff08109>
    800038cc:	00751463          	bne	a0,t2,800038d4 <fail>
    800038d0:	00301a63          	bne	zero,gp,800038e4 <pass>

00000000800038d4 <fail>:
    800038d4:	00119513          	slli	a0,gp,0x1
    800038d8:	00050063          	beqz	a0,800038d8 <fail+0x4>
    800038dc:	00156513          	ori	a0,a0,1
    800038e0:	00000073          	ecall

00000000800038e4 <pass>:
    800038e4:	00100513          	li	a0,1
    800038e8:	00000073          	ecall
    800038ec:	c0001073          	unimp
