
rv64ui-v-ma_data:     file format elf64-littleriscv


Disassembly of section .text.init:

0000000080000000 <_start>:
    80000000:	00c0006f          	j	8000000c <handle_reset>

0000000080000004 <nmi_vector>:
    80000004:	2c80206f          	j	800022cc <wtf>

0000000080000008 <trap_vector>:
    80000008:	2c40206f          	j	800022cc <wtf>

000000008000000c <handle_reset>:
    8000000c:	00000093          	li	ra,0
    80000010:	00000113          	li	sp,0
    80000014:	00000193          	li	gp,0
    80000018:	00000213          	li	tp,0
    8000001c:	00000293          	li	t0,0
    80000020:	00000313          	li	t1,0
    80000024:	00000393          	li	t2,0
    80000028:	00000413          	li	s0,0
    8000002c:	00000493          	li	s1,0
    80000030:	00000513          	li	a0,0
    80000034:	00000593          	li	a1,0
    80000038:	00000613          	li	a2,0
    8000003c:	00000693          	li	a3,0
    80000040:	00000713          	li	a4,0
    80000044:	00000793          	li	a5,0
    80000048:	00000813          	li	a6,0
    8000004c:	00000893          	li	a7,0
    80000050:	00000913          	li	s2,0
    80000054:	00000993          	li	s3,0
    80000058:	00000a13          	li	s4,0
    8000005c:	00000a93          	li	s5,0
    80000060:	00000b13          	li	s6,0
    80000064:	00000b93          	li	s7,0
    80000068:	00000c13          	li	s8,0
    8000006c:	00000c93          	li	s9,0
    80000070:	00000d13          	li	s10,0
    80000074:	00000d93          	li	s11,0
    80000078:	00000e13          	li	t3,0
    8000007c:	00000e93          	li	t4,0
    80000080:	00000f13          	li	t5,0
    80000084:	00000f93          	li	t6,0
    80000088:	00000297          	auipc	t0,0x0
    8000008c:	01028293          	addi	t0,t0,16 # 80000098 <handle_reset+0x8c>
    80000090:	30529073          	csrw	mtvec,t0
    80000094:	74445073          	csrwi	0x744,8
    80000098:	00000297          	auipc	t0,0x0
    8000009c:	f7028293          	addi	t0,t0,-144 # 80000008 <trap_vector>
    800000a0:	30529073          	csrw	mtvec,t0
    800000a4:	0000f117          	auipc	sp,0xf
    800000a8:	e3c10113          	addi	sp,sp,-452 # 8000eee0 <freelist_head+0x3ed8>
    800000ac:	f14022f3          	csrr	t0,mhartid
    800000b0:	00c29293          	slli	t0,t0,0xc
    800000b4:	00510133          	add	sp,sp,t0
    800000b8:	34011073          	csrw	mscratch,sp
    800000bc:	125020ef          	jal	ra,800029e0 <extra_boot>
    800000c0:	00003517          	auipc	a0,0x3
    800000c4:	93450513          	addi	a0,a0,-1740 # 800029f4 <userstart>
    800000c8:	71c0206f          	j	800027e4 <vm_boot>

00000000800000cc <pop_tf>:
    800000cc:	10853283          	ld	t0,264(a0)
    800000d0:	14129073          	csrw	sepc,t0
    800000d4:	00853083          	ld	ra,8(a0)
    800000d8:	01053103          	ld	sp,16(a0)
    800000dc:	01853183          	ld	gp,24(a0)
    800000e0:	02053203          	ld	tp,32(a0)
    800000e4:	02853283          	ld	t0,40(a0)
    800000e8:	03053303          	ld	t1,48(a0)
    800000ec:	03853383          	ld	t2,56(a0)
    800000f0:	04053403          	ld	s0,64(a0)
    800000f4:	04853483          	ld	s1,72(a0)
    800000f8:	05853583          	ld	a1,88(a0)
    800000fc:	06053603          	ld	a2,96(a0)
    80000100:	06853683          	ld	a3,104(a0)
    80000104:	07053703          	ld	a4,112(a0)
    80000108:	07853783          	ld	a5,120(a0)
    8000010c:	08053803          	ld	a6,128(a0)
    80000110:	08853883          	ld	a7,136(a0)
    80000114:	09053903          	ld	s2,144(a0)
    80000118:	09853983          	ld	s3,152(a0)
    8000011c:	0a053a03          	ld	s4,160(a0)
    80000120:	0a853a83          	ld	s5,168(a0)
    80000124:	0b053b03          	ld	s6,176(a0)
    80000128:	0b853b83          	ld	s7,184(a0)
    8000012c:	0c053c03          	ld	s8,192(a0)
    80000130:	0c853c83          	ld	s9,200(a0)
    80000134:	0d053d03          	ld	s10,208(a0)
    80000138:	0d853d83          	ld	s11,216(a0)
    8000013c:	0e053e03          	ld	t3,224(a0)
    80000140:	0e853e83          	ld	t4,232(a0)
    80000144:	0f053f03          	ld	t5,240(a0)
    80000148:	0f853f83          	ld	t6,248(a0)
    8000014c:	05053503          	ld	a0,80(a0)
    80000150:	10200073          	sret

0000000080000154 <trap_entry>:
    80000154:	14011173          	csrrw	sp,sscratch,sp
    80000158:	00113423          	sd	ra,8(sp)
    8000015c:	00313c23          	sd	gp,24(sp)
    80000160:	02413023          	sd	tp,32(sp)
    80000164:	02513423          	sd	t0,40(sp)
    80000168:	02613823          	sd	t1,48(sp)
    8000016c:	02713c23          	sd	t2,56(sp)
    80000170:	04813023          	sd	s0,64(sp)
    80000174:	04913423          	sd	s1,72(sp)
    80000178:	04a13823          	sd	a0,80(sp)
    8000017c:	04b13c23          	sd	a1,88(sp)
    80000180:	06c13023          	sd	a2,96(sp)
    80000184:	06d13423          	sd	a3,104(sp)
    80000188:	06e13823          	sd	a4,112(sp)
    8000018c:	06f13c23          	sd	a5,120(sp)
    80000190:	09013023          	sd	a6,128(sp)
    80000194:	09113423          	sd	a7,136(sp)
    80000198:	09213823          	sd	s2,144(sp)
    8000019c:	09313c23          	sd	s3,152(sp)
    800001a0:	0b413023          	sd	s4,160(sp)
    800001a4:	0b513423          	sd	s5,168(sp)
    800001a8:	0b613823          	sd	s6,176(sp)
    800001ac:	0b713c23          	sd	s7,184(sp)
    800001b0:	0d813023          	sd	s8,192(sp)
    800001b4:	0d913423          	sd	s9,200(sp)
    800001b8:	0da13823          	sd	s10,208(sp)
    800001bc:	0db13c23          	sd	s11,216(sp)
    800001c0:	0fc13023          	sd	t3,224(sp)
    800001c4:	0fd13423          	sd	t4,232(sp)
    800001c8:	0fe13823          	sd	t5,240(sp)
    800001cc:	0ff13c23          	sd	t6,248(sp)
    800001d0:	140112f3          	csrrw	t0,sscratch,sp
    800001d4:	00513823          	sd	t0,16(sp)
    800001d8:	100022f3          	csrr	t0,sstatus
    800001dc:	10513023          	sd	t0,256(sp)
    800001e0:	141022f3          	csrr	t0,sepc
    800001e4:	10513423          	sd	t0,264(sp)
    800001e8:	143022f3          	csrr	t0,stval
    800001ec:	10513823          	sd	t0,272(sp)
    800001f0:	142022f3          	csrr	t0,scause
    800001f4:	10513c23          	sd	t0,280(sp)
    800001f8:	00010513          	mv	a0,sp
    800001fc:	3880206f          	j	80002584 <handle_trap>

Disassembly of section .text:

0000000080002000 <memcpy>:
    80002000:	00c5e7b3          	or	a5,a1,a2
    80002004:	00f567b3          	or	a5,a0,a5
    80002008:	0077f793          	andi	a5,a5,7
    8000200c:	00c506b3          	add	a3,a0,a2
    80002010:	02078463          	beqz	a5,80002038 <memcpy+0x38>
    80002014:	00c58633          	add	a2,a1,a2
    80002018:	00050793          	mv	a5,a0
    8000201c:	02d57e63          	bgeu	a0,a3,80002058 <memcpy+0x58>
    80002020:	0005c703          	lbu	a4,0(a1)
    80002024:	00158593          	addi	a1,a1,1
    80002028:	00178793          	addi	a5,a5,1
    8000202c:	fee78fa3          	sb	a4,-1(a5)
    80002030:	fec598e3          	bne	a1,a2,80002020 <memcpy+0x20>
    80002034:	00008067          	ret
    80002038:	fed57ee3          	bgeu	a0,a3,80002034 <memcpy+0x34>
    8000203c:	00050793          	mv	a5,a0
    80002040:	0005b703          	ld	a4,0(a1)
    80002044:	00878793          	addi	a5,a5,8
    80002048:	00858593          	addi	a1,a1,8
    8000204c:	fee7bc23          	sd	a4,-8(a5)
    80002050:	fed7e8e3          	bltu	a5,a3,80002040 <memcpy+0x40>
    80002054:	00008067          	ret
    80002058:	00008067          	ret

000000008000205c <memset>:
    8000205c:	ff010113          	addi	sp,sp,-16
    80002060:	00c567b3          	or	a5,a0,a2
    80002064:	00813023          	sd	s0,0(sp)
    80002068:	00113423          	sd	ra,8(sp)
    8000206c:	0077f793          	andi	a5,a5,7
    80002070:	00050413          	mv	s0,a0
    80002074:	00c50733          	add	a4,a0,a2
    80002078:	02078263          	beqz	a5,8000209c <memset+0x40>
    8000207c:	00e57663          	bgeu	a0,a4,80002088 <memset+0x2c>
    80002080:	0ff5f593          	zext.b	a1,a1
    80002084:	fd9ff0ef          	jal	ra,8000205c <memset>
    80002088:	00813083          	ld	ra,8(sp)
    8000208c:	00040513          	mv	a0,s0
    80002090:	00013403          	ld	s0,0(sp)
    80002094:	01010113          	addi	sp,sp,16
    80002098:	00008067          	ret
    8000209c:	0ff5f593          	zext.b	a1,a1
    800020a0:	00859693          	slli	a3,a1,0x8
    800020a4:	00b6e5b3          	or	a1,a3,a1
    800020a8:	01059693          	slli	a3,a1,0x10
    800020ac:	00b6e5b3          	or	a1,a3,a1
    800020b0:	02059693          	slli	a3,a1,0x20
    800020b4:	00b6e6b3          	or	a3,a3,a1
    800020b8:	fce578e3          	bgeu	a0,a4,80002088 <memset+0x2c>
    800020bc:	00050793          	mv	a5,a0
    800020c0:	00878793          	addi	a5,a5,8
    800020c4:	fed7bc23          	sd	a3,-8(a5)
    800020c8:	fee7ece3          	bltu	a5,a4,800020c0 <memset+0x64>
    800020cc:	00813083          	ld	ra,8(sp)
    800020d0:	00040513          	mv	a0,s0
    800020d4:	00013403          	ld	s0,0(sp)
    800020d8:	01010113          	addi	sp,sp,16
    800020dc:	00008067          	ret

00000000800020e0 <strlen>:
    800020e0:	00054783          	lbu	a5,0(a0)
    800020e4:	00078e63          	beqz	a5,80002100 <strlen+0x20>
    800020e8:	00050793          	mv	a5,a0
    800020ec:	0017c703          	lbu	a4,1(a5)
    800020f0:	00178793          	addi	a5,a5,1
    800020f4:	fe071ce3          	bnez	a4,800020ec <strlen+0xc>
    800020f8:	40a78533          	sub	a0,a5,a0
    800020fc:	00008067          	ret
    80002100:	00000513          	li	a0,0
    80002104:	00008067          	ret

0000000080002108 <strcmp>:
    80002108:	00054783          	lbu	a5,0(a0)
    8000210c:	00158593          	addi	a1,a1,1
    80002110:	00150513          	addi	a0,a0,1
    80002114:	fff5c703          	lbu	a4,-1(a1)
    80002118:	00078a63          	beqz	a5,8000212c <strcmp+0x24>
    8000211c:	fee786e3          	beq	a5,a4,80002108 <strcmp>
    80002120:	0007851b          	sext.w	a0,a5
    80002124:	40e5053b          	subw	a0,a0,a4
    80002128:	00008067          	ret
    8000212c:	00000513          	li	a0,0
    80002130:	ff5ff06f          	j	80002124 <strcmp+0x1c>

0000000080002134 <memcmp>:
    80002134:	00b567b3          	or	a5,a0,a1
    80002138:	0077f793          	andi	a5,a5,7
    8000213c:	02079e63          	bnez	a5,80002178 <memcmp+0x44>
    80002140:	ff867813          	andi	a6,a2,-8
    80002144:	01050833          	add	a6,a0,a6
    80002148:	03057863          	bgeu	a0,a6,80002178 <memcmp+0x44>
    8000214c:	00050793          	mv	a5,a0
    80002150:	0100006f          	j	80002160 <memcmp+0x2c>
    80002154:	00878793          	addi	a5,a5,8
    80002158:	00858593          	addi	a1,a1,8
    8000215c:	0107f863          	bgeu	a5,a6,8000216c <memcmp+0x38>
    80002160:	0007b683          	ld	a3,0(a5)
    80002164:	0005b703          	ld	a4,0(a1)
    80002168:	fee686e3          	beq	a3,a4,80002154 <memcmp+0x20>
    8000216c:	40a78533          	sub	a0,a5,a0
    80002170:	40a60633          	sub	a2,a2,a0
    80002174:	00078513          	mv	a0,a5
    80002178:	00c58633          	add	a2,a1,a2
    8000217c:	0140006f          	j	80002190 <memcmp+0x5c>
    80002180:	0005c703          	lbu	a4,0(a1)
    80002184:	fff54783          	lbu	a5,-1(a0)
    80002188:	00158593          	addi	a1,a1,1
    8000218c:	00e79a63          	bne	a5,a4,800021a0 <memcmp+0x6c>
    80002190:	00150513          	addi	a0,a0,1
    80002194:	fec596e3          	bne	a1,a2,80002180 <memcmp+0x4c>
    80002198:	00000513          	li	a0,0
    8000219c:	00008067          	ret
    800021a0:	40e7853b          	subw	a0,a5,a4
    800021a4:	00008067          	ret

00000000800021a8 <strcpy>:
    800021a8:	00050793          	mv	a5,a0
    800021ac:	0005c703          	lbu	a4,0(a1)
    800021b0:	00178793          	addi	a5,a5,1
    800021b4:	00158593          	addi	a1,a1,1
    800021b8:	fee78fa3          	sb	a4,-1(a5)
    800021bc:	fe0718e3          	bnez	a4,800021ac <strcpy+0x4>
    800021c0:	00008067          	ret

00000000800021c4 <atol>:
    800021c4:	00054703          	lbu	a4,0(a0)
    800021c8:	02000693          	li	a3,32
    800021cc:	00050793          	mv	a5,a0
    800021d0:	00d71863          	bne	a4,a3,800021e0 <atol+0x1c>
    800021d4:	0017c703          	lbu	a4,1(a5)
    800021d8:	00178793          	addi	a5,a5,1
    800021dc:	fed70ce3          	beq	a4,a3,800021d4 <atol+0x10>
    800021e0:	02d00693          	li	a3,45
    800021e4:	06d70063          	beq	a4,a3,80002244 <atol+0x80>
    800021e8:	02b00693          	li	a3,43
    800021ec:	04d70063          	beq	a4,a3,8000222c <atol+0x68>
    800021f0:	0007c683          	lbu	a3,0(a5)
    800021f4:	00000593          	li	a1,0
    800021f8:	04068263          	beqz	a3,8000223c <atol+0x78>
    800021fc:	00000513          	li	a0,0
    80002200:	00178793          	addi	a5,a5,1
    80002204:	fd06861b          	addiw	a2,a3,-48
    80002208:	00251713          	slli	a4,a0,0x2
    8000220c:	0007c683          	lbu	a3,0(a5)
    80002210:	00a70533          	add	a0,a4,a0
    80002214:	00151513          	slli	a0,a0,0x1
    80002218:	00a60533          	add	a0,a2,a0
    8000221c:	fe0692e3          	bnez	a3,80002200 <atol+0x3c>
    80002220:	02058063          	beqz	a1,80002240 <atol+0x7c>
    80002224:	40a00533          	neg	a0,a0
    80002228:	00008067          	ret
    8000222c:	0017c683          	lbu	a3,1(a5)
    80002230:	00000593          	li	a1,0
    80002234:	00178793          	addi	a5,a5,1
    80002238:	fc0692e3          	bnez	a3,800021fc <atol+0x38>
    8000223c:	00000513          	li	a0,0
    80002240:	00008067          	ret
    80002244:	0017c683          	lbu	a3,1(a5)
    80002248:	00100593          	li	a1,1
    8000224c:	00178793          	addi	a5,a5,1
    80002250:	fa0696e3          	bnez	a3,800021fc <atol+0x38>
    80002254:	00000513          	li	a0,0
    80002258:	fe9ff06f          	j	80002240 <atol+0x7c>

000000008000225c <cputstring>:
    8000225c:	00054783          	lbu	a5,0(a0)
    80002260:	04078063          	beqz	a5,800022a0 <cputstring+0x44>
    80002264:	10100593          	li	a1,257
    80002268:	fffff717          	auipc	a4,0xfffff
    8000226c:	d9870713          	addi	a4,a4,-616 # 80001000 <tohost>
    80002270:	03059593          	slli	a1,a1,0x30
    80002274:	00073603          	ld	a2,0(a4)
    80002278:	00150513          	addi	a0,a0,1
    8000227c:	00b7e6b3          	or	a3,a5,a1
    80002280:	00060a63          	beqz	a2,80002294 <cputstring+0x38>
    80002284:	fffff797          	auipc	a5,0xfffff
    80002288:	da07be23          	sd	zero,-580(a5) # 80001040 <fromhost>
    8000228c:	00073783          	ld	a5,0(a4)
    80002290:	fe079ae3          	bnez	a5,80002284 <cputstring+0x28>
    80002294:	00d73023          	sd	a3,0(a4)
    80002298:	00054783          	lbu	a5,0(a0)
    8000229c:	fc079ce3          	bnez	a5,80002274 <cputstring+0x18>
    800022a0:	00008067          	ret

00000000800022a4 <terminate>:
    800022a4:	fffff717          	auipc	a4,0xfffff
    800022a8:	d5c70713          	addi	a4,a4,-676 # 80001000 <tohost>
    800022ac:	00073783          	ld	a5,0(a4)
    800022b0:	00078a63          	beqz	a5,800022c4 <terminate+0x20>
    800022b4:	fffff797          	auipc	a5,0xfffff
    800022b8:	d807b623          	sd	zero,-628(a5) # 80001040 <fromhost>
    800022bc:	00073783          	ld	a5,0(a4)
    800022c0:	fe079ae3          	bnez	a5,800022b4 <terminate+0x10>
    800022c4:	00a73023          	sd	a0,0(a4)
    800022c8:	0000006f          	j	800022c8 <terminate+0x24>

00000000800022cc <wtf>:
    800022cc:	ff010113          	addi	sp,sp,-16
    800022d0:	34900513          	li	a0,841
    800022d4:	00113423          	sd	ra,8(sp)
    800022d8:	fcdff0ef          	jal	ra,800022a4 <terminate>

00000000800022dc <printhex>:
    800022dc:	fe010113          	addi	sp,sp,-32
    800022e0:	00810613          	addi	a2,sp,8
    800022e4:	01710793          	addi	a5,sp,23
    800022e8:	00900813          	li	a6,9
    800022ec:	0080006f          	j	800022f4 <printhex+0x18>
    800022f0:	00070793          	mv	a5,a4
    800022f4:	00f57693          	andi	a3,a0,15
    800022f8:	00068713          	mv	a4,a3
    800022fc:	03000593          	li	a1,48
    80002300:	00d87463          	bgeu	a6,a3,80002308 <printhex+0x2c>
    80002304:	05700593          	li	a1,87
    80002308:	00b7073b          	addw	a4,a4,a1
    8000230c:	00e78023          	sb	a4,0(a5)
    80002310:	00455513          	srli	a0,a0,0x4
    80002314:	fff78713          	addi	a4,a5,-1
    80002318:	fcf61ce3          	bne	a2,a5,800022f0 <printhex+0x14>
    8000231c:	00814783          	lbu	a5,8(sp)
    80002320:	00010c23          	sb	zero,24(sp)
    80002324:	04078263          	beqz	a5,80002368 <printhex+0x8c>
    80002328:	10100513          	li	a0,257
    8000232c:	00060693          	mv	a3,a2
    80002330:	fffff717          	auipc	a4,0xfffff
    80002334:	cd070713          	addi	a4,a4,-816 # 80001000 <tohost>
    80002338:	03051513          	slli	a0,a0,0x30
    8000233c:	00073583          	ld	a1,0(a4)
    80002340:	00168693          	addi	a3,a3,1
    80002344:	00a7e633          	or	a2,a5,a0
    80002348:	00058a63          	beqz	a1,8000235c <printhex+0x80>
    8000234c:	fffff797          	auipc	a5,0xfffff
    80002350:	ce07ba23          	sd	zero,-780(a5) # 80001040 <fromhost>
    80002354:	00073783          	ld	a5,0(a4)
    80002358:	fe079ae3          	bnez	a5,8000234c <printhex+0x70>
    8000235c:	0006c783          	lbu	a5,0(a3)
    80002360:	00c73023          	sd	a2,0(a4)
    80002364:	fc079ce3          	bnez	a5,8000233c <printhex+0x60>
    80002368:	02010113          	addi	sp,sp,32
    8000236c:	00008067          	ret

0000000080002370 <handle_fault>:
    80002370:	fb010113          	addi	sp,sp,-80
    80002374:	00100793          	li	a5,1
    80002378:	04813023          	sd	s0,64(sp)
    8000237c:	fffff437          	lui	s0,0xfffff
    80002380:	00f12223          	sw	a5,4(sp)
    80002384:	04113423          	sd	ra,72(sp)
    80002388:	02913c23          	sd	s1,56(sp)
    8000238c:	03213823          	sd	s2,48(sp)
    80002390:	03313423          	sd	s3,40(sp)
    80002394:	03413023          	sd	s4,32(sp)
    80002398:	01513c23          	sd	s5,24(sp)
    8000239c:	00013423          	sd	zero,8(sp)
    800023a0:	00850733          	add	a4,a0,s0
    800023a4:	0003e7b7          	lui	a5,0x3e
    800023a8:	18f77663          	bgeu	a4,a5,80002534 <handle_fault+0x1c4>
    800023ac:	00c55993          	srli	s3,a0,0xc
    800023b0:	60098913          	addi	s2,s3,1536
    800023b4:	00005497          	auipc	s1,0x5
    800023b8:	c4c48493          	addi	s1,s1,-948 # 80007000 <pt>
    800023bc:	00391793          	slli	a5,s2,0x3
    800023c0:	00f487b3          	add	a5,s1,a5
    800023c4:	0007b703          	ld	a4,0(a5) # 3e000 <_start-0x7ffc2000>
    800023c8:	00857433          	and	s0,a0,s0
    800023cc:	10071663          	bnez	a4,800024d8 <handle_fault+0x168>
    800023d0:	00009717          	auipc	a4,0x9
    800023d4:	c3870713          	addi	a4,a4,-968 # 8000b008 <freelist_head>
    800023d8:	00073a03          	ld	s4,0(a4)
    800023dc:	180a0063          	beqz	s4,8000255c <handle_fault+0x1ec>
    800023e0:	008a3783          	ld	a5,8(s4)
    800023e4:	00009697          	auipc	a3,0x9
    800023e8:	c1c6b683          	ld	a3,-996(a3) # 8000b000 <freelist_tail>
    800023ec:	00f73023          	sd	a5,0(a4)
    800023f0:	12d78c63          	beq	a5,a3,80002528 <handle_fault+0x1b8>
    800023f4:	00410613          	addi	a2,sp,4
    800023f8:	00810593          	addi	a1,sp,8
    800023fc:	00040513          	mv	a0,s0
    80002400:	000a3a83          	ld	s5,0(s4)
    80002404:	5e8000ef          	jal	ra,800029ec <pf_filter>
    80002408:	0e051c63          	bnez	a0,80002500 <handle_fault+0x190>
    8000240c:	00cad693          	srli	a3,s5,0xc
    80002410:	00a69693          	slli	a3,a3,0xa
    80002414:	01f6e693          	ori	a3,a3,31
    80002418:	00391793          	slli	a5,s2,0x3
    8000241c:	00f487b3          	add	a5,s1,a5
    80002420:	0c06e713          	ori	a4,a3,192
    80002424:	00e7b023          	sd	a4,0(a5)
    80002428:	12040073          	sfence.vma	s0
    8000242c:	00004797          	auipc	a5,0x4
    80002430:	bd478793          	addi	a5,a5,-1068 # 80006000 <user_mapping>
    80002434:	00499993          	slli	s3,s3,0x4
    80002438:	013789b3          	add	s3,a5,s3
    8000243c:	0009b783          	ld	a5,0(s3)
    80002440:	12079863          	bnez	a5,80002570 <handle_fault+0x200>
    80002444:	000a3783          	ld	a5,0(s4)
    80002448:	000405b7          	lui	a1,0x40
    8000244c:	00f9b023          	sd	a5,0(s3)
    80002450:	008a3783          	ld	a5,8(s4)
    80002454:	00f9b423          	sd	a5,8(s3)
    80002458:	1005a5f3          	csrrs	a1,sstatus,a1
    8000245c:	ffe007b7          	lui	a5,0xffe00
    80002460:	00f407b3          	add	a5,s0,a5
    80002464:	00001637          	lui	a2,0x1
    80002468:	00040713          	mv	a4,s0
    8000246c:	00c78633          	add	a2,a5,a2
    80002470:	0007b303          	ld	t1,0(a5) # ffffffffffe00000 <freelist_head+0xffffffff7fdf4ff8>
    80002474:	0087b883          	ld	a7,8(a5)
    80002478:	0107b803          	ld	a6,16(a5)
    8000247c:	0187b503          	ld	a0,24(a5)
    80002480:	00673023          	sd	t1,0(a4)
    80002484:	01173423          	sd	a7,8(a4)
    80002488:	01073823          	sd	a6,16(a4)
    8000248c:	00a73c23          	sd	a0,24(a4)
    80002490:	02078793          	addi	a5,a5,32
    80002494:	02070713          	addi	a4,a4,32
    80002498:	fcc79ce3          	bne	a5,a2,80002470 <handle_fault+0x100>
    8000249c:	10059073          	csrw	sstatus,a1
    800024a0:	00391913          	slli	s2,s2,0x3
    800024a4:	012484b3          	add	s1,s1,s2
    800024a8:	00d4b023          	sd	a3,0(s1)
    800024ac:	12040073          	sfence.vma	s0
    800024b0:	0000100f          	fence.i
    800024b4:	04813083          	ld	ra,72(sp)
    800024b8:	04013403          	ld	s0,64(sp)
    800024bc:	03813483          	ld	s1,56(sp)
    800024c0:	03013903          	ld	s2,48(sp)
    800024c4:	02813983          	ld	s3,40(sp)
    800024c8:	02013a03          	ld	s4,32(sp)
    800024cc:	01813a83          	ld	s5,24(sp)
    800024d0:	05010113          	addi	sp,sp,80
    800024d4:	00008067          	ret
    800024d8:	04077693          	andi	a3,a4,64
    800024dc:	02068e63          	beqz	a3,80002518 <handle_fault+0x1a8>
    800024e0:	08077693          	andi	a3,a4,128
    800024e4:	06069263          	bnez	a3,80002548 <handle_fault+0x1d8>
    800024e8:	00f00693          	li	a3,15
    800024ec:	04d59e63          	bne	a1,a3,80002548 <handle_fault+0x1d8>
    800024f0:	08076713          	ori	a4,a4,128
    800024f4:	00e7b023          	sd	a4,0(a5)
    800024f8:	12040073          	sfence.vma	s0
    800024fc:	fb9ff06f          	j	800024b4 <handle_fault+0x144>
    80002500:	000a3683          	ld	a3,0(s4)
    80002504:	00813783          	ld	a5,8(sp)
    80002508:	00c6d693          	srli	a3,a3,0xc
    8000250c:	00a69693          	slli	a3,a3,0xa
    80002510:	00f6e6b3          	or	a3,a3,a5
    80002514:	f05ff06f          	j	80002418 <handle_fault+0xa8>
    80002518:	04076713          	ori	a4,a4,64
    8000251c:	00e7b023          	sd	a4,0(a5)
    80002520:	12040073          	sfence.vma	s0
    80002524:	f91ff06f          	j	800024b4 <handle_fault+0x144>
    80002528:	00009797          	auipc	a5,0x9
    8000252c:	ac07bc23          	sd	zero,-1320(a5) # 8000b000 <freelist_tail>
    80002530:	ec5ff06f          	j	800023f4 <handle_fault+0x84>
    80002534:	00002517          	auipc	a0,0x2
    80002538:	15450513          	addi	a0,a0,340 # 80004688 <pass+0xc>
    8000253c:	d21ff0ef          	jal	ra,8000225c <cputstring>
    80002540:	00300513          	li	a0,3
    80002544:	d61ff0ef          	jal	ra,800022a4 <terminate>
    80002548:	00002517          	auipc	a0,0x2
    8000254c:	18850513          	addi	a0,a0,392 # 800046d0 <pass+0x54>
    80002550:	d0dff0ef          	jal	ra,8000225c <cputstring>
    80002554:	00300513          	li	a0,3
    80002558:	d4dff0ef          	jal	ra,800022a4 <terminate>
    8000255c:	00002517          	auipc	a0,0x2
    80002560:	1bc50513          	addi	a0,a0,444 # 80004718 <pass+0x9c>
    80002564:	cf9ff0ef          	jal	ra,8000225c <cputstring>
    80002568:	00300513          	li	a0,3
    8000256c:	d39ff0ef          	jal	ra,800022a4 <terminate>
    80002570:	00002517          	auipc	a0,0x2
    80002574:	1c050513          	addi	a0,a0,448 # 80004730 <pass+0xb4>
    80002578:	ce5ff0ef          	jal	ra,8000225c <cputstring>
    8000257c:	00300513          	li	a0,3
    80002580:	d25ff0ef          	jal	ra,800022a4 <terminate>

0000000080002584 <handle_trap>:
    80002584:	f8010113          	addi	sp,sp,-128
    80002588:	06813823          	sd	s0,112(sp)
    8000258c:	06113c23          	sd	ra,120(sp)
    80002590:	06913423          	sd	s1,104(sp)
    80002594:	07213023          	sd	s2,96(sp)
    80002598:	05313c23          	sd	s3,88(sp)
    8000259c:	05413823          	sd	s4,80(sp)
    800025a0:	05513423          	sd	s5,72(sp)
    800025a4:	05613023          	sd	s6,64(sp)
    800025a8:	03713c23          	sd	s7,56(sp)
    800025ac:	03813823          	sd	s8,48(sp)
    800025b0:	03913423          	sd	s9,40(sp)
    800025b4:	03a13023          	sd	s10,32(sp)
    800025b8:	01b13c23          	sd	s11,24(sp)
    800025bc:	00050413          	mv	s0,a0
    800025c0:	424000ef          	jal	ra,800029e4 <trap_filter>
    800025c4:	0e051263          	bnez	a0,800026a8 <handle_trap+0x124>
    800025c8:	11843583          	ld	a1,280(s0) # fffffffffffff118 <freelist_head+0xffffffff7fff4110>
    800025cc:	00800793          	li	a5,8
    800025d0:	10f58063          	beq	a1,a5,800026d0 <handle_trap+0x14c>
    800025d4:	00200793          	li	a5,2
    800025d8:	06f58063          	beq	a1,a5,80002638 <handle_trap+0xb4>
    800025dc:	ff458793          	addi	a5,a1,-12 # 3fff4 <_start-0x7ffc000c>
    800025e0:	00100713          	li	a4,1
    800025e4:	00f77663          	bgeu	a4,a5,800025f0 <handle_trap+0x6c>
    800025e8:	00f00793          	li	a5,15
    800025ec:	1af59c63          	bne	a1,a5,800027a4 <handle_trap+0x220>
    800025f0:	11043503          	ld	a0,272(s0)
    800025f4:	d7dff0ef          	jal	ra,80002370 <handle_fault>
    800025f8:	00040513          	mv	a0,s0
    800025fc:	07013403          	ld	s0,112(sp)
    80002600:	07813083          	ld	ra,120(sp)
    80002604:	06813483          	ld	s1,104(sp)
    80002608:	06013903          	ld	s2,96(sp)
    8000260c:	05813983          	ld	s3,88(sp)
    80002610:	05013a03          	ld	s4,80(sp)
    80002614:	04813a83          	ld	s5,72(sp)
    80002618:	04013b03          	ld	s6,64(sp)
    8000261c:	03813b83          	ld	s7,56(sp)
    80002620:	03013c03          	ld	s8,48(sp)
    80002624:	02813c83          	ld	s9,40(sp)
    80002628:	02013d03          	ld	s10,32(sp)
    8000262c:	01813d83          	ld	s11,24(sp)
    80002630:	08010113          	addi	sp,sp,128
    80002634:	a99fd06f          	j	800000cc <pop_tf>
    80002638:	10843703          	ld	a4,264(s0)
    8000263c:	00377793          	andi	a5,a4,3
    80002640:	06079e63          	bnez	a5,800026bc <handle_trap+0x138>
    80002644:	008007ef          	jal	a5,8000264c <handle_trap+0xc8>
    80002648:	00301073          	fscsr	zero
    8000264c:	00072703          	lw	a4,0(a4)
    80002650:	0007a783          	lw	a5,0(a5)
    80002654:	06f70063          	beq	a4,a5,800026b4 <handle_trap+0x130>
    80002658:	10100513          	li	a0,257
    8000265c:	04100793          	li	a5,65
    80002660:	00002697          	auipc	a3,0x2
    80002664:	11068693          	addi	a3,a3,272 # 80004770 <pass+0xf4>
    80002668:	fffff717          	auipc	a4,0xfffff
    8000266c:	99870713          	addi	a4,a4,-1640 # 80001000 <tohost>
    80002670:	03051513          	slli	a0,a0,0x30
    80002674:	00073583          	ld	a1,0(a4)
    80002678:	00168693          	addi	a3,a3,1
    8000267c:	00a7e633          	or	a2,a5,a0
    80002680:	00058a63          	beqz	a1,80002694 <handle_trap+0x110>
    80002684:	fffff797          	auipc	a5,0xfffff
    80002688:	9a07be23          	sd	zero,-1604(a5) # 80001040 <fromhost>
    8000268c:	00073783          	ld	a5,0(a4)
    80002690:	fe079ae3          	bnez	a5,80002684 <handle_trap+0x100>
    80002694:	0006c783          	lbu	a5,0(a3)
    80002698:	00c73023          	sd	a2,0(a4)
    8000269c:	fc079ce3          	bnez	a5,80002674 <handle_trap+0xf0>
    800026a0:	00300513          	li	a0,3
    800026a4:	c01ff0ef          	jal	ra,800022a4 <terminate>
    800026a8:	00040513          	mv	a0,s0
    800026ac:	a21fd0ef          	jal	ra,800000cc <pop_tf>
    800026b0:	f19ff06f          	j	800025c8 <handle_trap+0x44>
    800026b4:	00100513          	li	a0,1
    800026b8:	bedff0ef          	jal	ra,800022a4 <terminate>
    800026bc:	00002517          	auipc	a0,0x2
    800026c0:	15450513          	addi	a0,a0,340 # 80004810 <pass+0x194>
    800026c4:	b99ff0ef          	jal	ra,8000225c <cputstring>
    800026c8:	00300513          	li	a0,3
    800026cc:	bd9ff0ef          	jal	ra,800022a4 <terminate>
    800026d0:	05042903          	lw	s2,80(s0)
    800026d4:	00001c37          	lui	s8,0x1
    800026d8:	00004497          	auipc	s1,0x4
    800026dc:	92848493          	addi	s1,s1,-1752 # 80006000 <user_mapping>
    800026e0:	00005b97          	auipc	s7,0x5
    800026e4:	920b8b93          	addi	s7,s7,-1760 # 80007000 <pt>
    800026e8:	00040b37          	lui	s6,0x40
    800026ec:	ffe00ab7          	lui	s5,0xffe00
    800026f0:	00009d97          	auipc	s11,0x9
    800026f4:	910d8d93          	addi	s11,s11,-1776 # 8000b000 <freelist_tail>
    800026f8:	00009a17          	auipc	s4,0x9
    800026fc:	910a0a13          	addi	s4,s4,-1776 # 8000b008 <freelist_head>
    80002700:	0003f9b7          	lui	s3,0x3f
    80002704:	0180006f          	j	8000271c <handle_trap+0x198>
    80002708:	00f73423          	sd	a5,8(a4)
    8000270c:	00fdb023          	sd	a5,0(s11)
    80002710:	000017b7          	lui	a5,0x1
    80002714:	00fc0c33          	add	s8,s8,a5
    80002718:	0d3c0263          	beq	s8,s3,800027dc <handle_trap+0x258>
    8000271c:	00cc5793          	srli	a5,s8,0xc
    80002720:	00479413          	slli	s0,a5,0x4
    80002724:	00848733          	add	a4,s1,s0
    80002728:	00073703          	ld	a4,0(a4)
    8000272c:	fe0702e3          	beqz	a4,80002710 <handle_trap+0x18c>
    80002730:	60078793          	addi	a5,a5,1536 # 1600 <_start-0x7fffea00>
    80002734:	00379793          	slli	a5,a5,0x3
    80002738:	00fb87b3          	add	a5,s7,a5
    8000273c:	0007bc83          	ld	s9,0(a5)
    80002740:	040cf793          	andi	a5,s9,64
    80002744:	08078263          	beqz	a5,800027c8 <handle_trap+0x244>
    80002748:	100b2d73          	csrrs	s10,sstatus,s6
    8000274c:	015c07b3          	add	a5,s8,s5
    80002750:	00001637          	lui	a2,0x1
    80002754:	00078593          	mv	a1,a5
    80002758:	000c0513          	mv	a0,s8
    8000275c:	00f13423          	sd	a5,8(sp)
    80002760:	9d5ff0ef          	jal	ra,80002134 <memcmp>
    80002764:	02050063          	beqz	a0,80002784 <handle_trap+0x200>
    80002768:	080cfc93          	andi	s9,s9,128
    8000276c:	00813783          	ld	a5,8(sp)
    80002770:	040c8263          	beqz	s9,800027b4 <handle_trap+0x230>
    80002774:	00001637          	lui	a2,0x1
    80002778:	000c0593          	mv	a1,s8
    8000277c:	00078513          	mv	a0,a5
    80002780:	881ff0ef          	jal	ra,80002000 <memcpy>
    80002784:	008487b3          	add	a5,s1,s0
    80002788:	100d1073          	csrw	sstatus,s10
    8000278c:	000db703          	ld	a4,0(s11)
    80002790:	0007b023          	sd	zero,0(a5)
    80002794:	f6071ae3          	bnez	a4,80002708 <handle_trap+0x184>
    80002798:	00fdb023          	sd	a5,0(s11)
    8000279c:	00fa3023          	sd	a5,0(s4)
    800027a0:	f71ff06f          	j	80002710 <handle_trap+0x18c>
    800027a4:	00002517          	auipc	a0,0x2
    800027a8:	09450513          	addi	a0,a0,148 # 80004838 <pass+0x1bc>
    800027ac:	ab1ff0ef          	jal	ra,8000225c <cputstring>
    800027b0:	ef1ff06f          	j	800026a0 <handle_trap+0x11c>
    800027b4:	00002517          	auipc	a0,0x2
    800027b8:	02450513          	addi	a0,a0,36 # 800047d8 <pass+0x15c>
    800027bc:	aa1ff0ef          	jal	ra,8000225c <cputstring>
    800027c0:	00300513          	li	a0,3
    800027c4:	ae1ff0ef          	jal	ra,800022a4 <terminate>
    800027c8:	00002517          	auipc	a0,0x2
    800027cc:	fd850513          	addi	a0,a0,-40 # 800047a0 <pass+0x124>
    800027d0:	a8dff0ef          	jal	ra,8000225c <cputstring>
    800027d4:	00300513          	li	a0,3
    800027d8:	acdff0ef          	jal	ra,800022a4 <terminate>
    800027dc:	00090513          	mv	a0,s2
    800027e0:	ac5ff0ef          	jal	ra,800022a4 <terminate>

00000000800027e4 <vm_boot>:
    800027e4:	f14027f3          	csrr	a5,mhartid
    800027e8:	18079a63          	bnez	a5,8000297c <vm_boot+0x198>
    800027ec:	00007797          	auipc	a5,0x7
    800027f0:	81478793          	addi	a5,a5,-2028 # 80009000 <pt+0x2000>
    800027f4:	ed010113          	addi	sp,sp,-304
    800027f8:	00c7d793          	srli	a5,a5,0xc
    800027fc:	12813023          	sd	s0,288(sp)
    80002800:	00008817          	auipc	a6,0x8
    80002804:	80080813          	addi	a6,a6,-2048 # 8000a000 <pt+0x3000>
    80002808:	00050413          	mv	s0,a0
    8000280c:	00a79793          	slli	a5,a5,0xa
    80002810:	00005517          	auipc	a0,0x5
    80002814:	7f050513          	addi	a0,a0,2032 # 80008000 <pt+0x1000>
    80002818:	12113423          	sd	ra,296(sp)
    8000281c:	00c55693          	srli	a3,a0,0xc
    80002820:	00c85713          	srli	a4,a6,0xc
    80002824:	0017e793          	ori	a5,a5,1
    80002828:	00004897          	auipc	a7,0x4
    8000282c:	7d888893          	addi	a7,a7,2008 # 80007000 <pt>
    80002830:	fff00613          	li	a2,-1
    80002834:	fef53c23          	sd	a5,-8(a0)
    80002838:	00a69693          	slli	a3,a3,0xa
    8000283c:	00a71713          	slli	a4,a4,0xa
    80002840:	200007b7          	lui	a5,0x20000
    80002844:	0016e693          	ori	a3,a3,1
    80002848:	00176713          	ori	a4,a4,1
    8000284c:	00c8d593          	srli	a1,a7,0xc
    80002850:	03f61313          	slli	t1,a2,0x3f
    80002854:	0cf78793          	addi	a5,a5,207 # 200000cf <_start-0x5fffff31>
    80002858:	fef83c23          	sd	a5,-8(a6)
    8000285c:	00d8b023          	sd	a3,0(a7)
    80002860:	00e53023          	sd	a4,0(a0)
    80002864:	0065e7b3          	or	a5,a1,t1
    80002868:	18079073          	csrw	satp,a5
    8000286c:	18002773          	csrr	a4,satp
    80002870:	14e79e63          	bne	a5,a4,800029cc <vm_boot+0x1e8>
    80002874:	00b65613          	srli	a2,a2,0xb
    80002878:	01f00793          	li	a5,31
    8000287c:	00000297          	auipc	t0,0x0
    80002880:	01428293          	addi	t0,t0,20 # 80002890 <vm_boot+0xac>
    80002884:	305292f3          	csrrw	t0,mtvec,t0
    80002888:	3b061073          	csrw	pmpaddr0,a2
    8000288c:	3a079073          	csrw	pmpcfg0,a5
    80002890:	30529073          	csrw	mtvec,t0
    80002894:	bff00813          	li	a6,-1025
    80002898:	01581813          	slli	a6,a6,0x15
    8000289c:	ffffe797          	auipc	a5,0xffffe
    800028a0:	8b878793          	addi	a5,a5,-1864 # 80000154 <trap_entry>
    800028a4:	010787b3          	add	a5,a5,a6
    800028a8:	10579073          	csrw	stvec,a5
    800028ac:	340027f3          	csrr	a5,mscratch
    800028b0:	010787b3          	add	a5,a5,a6
    800028b4:	14079073          	csrw	sscratch,a5
    800028b8:	0000b7b7          	lui	a5,0xb
    800028bc:	1007879b          	addiw	a5,a5,256
    800028c0:	30279073          	csrw	medeleg,a5
    800028c4:	0001e7b7          	lui	a5,0x1e
    800028c8:	6007879b          	addiw	a5,a5,1536
    800028cc:	30079073          	csrw	mstatus,a5
    800028d0:	30405073          	csrwi	mie,0
    800028d4:	00004717          	auipc	a4,0x4
    800028d8:	b1c70713          	addi	a4,a4,-1252 # 800063f0 <freelist_nodes>
    800028dc:	3e080793          	addi	a5,a6,992
    800028e0:	010706b3          	add	a3,a4,a6
    800028e4:	00f707b3          	add	a5,a4,a5
    800028e8:	000808b7          	lui	a7,0x80
    800028ec:	00008617          	auipc	a2,0x8
    800028f0:	70d63e23          	sd	a3,1820(a2) # 8000b008 <freelist_head>
    800028f4:	00004317          	auipc	t1,0x4
    800028f8:	eec30313          	addi	t1,t1,-276 # 800067e0 <freelist_nodes+0x3f0>
    800028fc:	00008697          	auipc	a3,0x8
    80002900:	70f6b223          	sd	a5,1796(a3) # 8000b000 <freelist_tail>
    80002904:	03f88893          	addi	a7,a7,63 # 8003f <_start-0x7ff7ffc1>
    80002908:	00e00793          	li	a5,14
    8000290c:	01080813          	addi	a6,a6,16
    80002910:	0017d613          	srli	a2,a5,0x1
    80002914:	011786b3          	add	a3,a5,a7
    80002918:	00f647b3          	xor	a5,a2,a5
    8000291c:	010705b3          	add	a1,a4,a6
    80002920:	00c69693          	slli	a3,a3,0xc
    80002924:	00579793          	slli	a5,a5,0x5
    80002928:	00d73023          	sd	a3,0(a4)
    8000292c:	00b73423          	sd	a1,8(a4)
    80002930:	0207f793          	andi	a5,a5,32
    80002934:	01070713          	addi	a4,a4,16
    80002938:	00f667b3          	or	a5,a2,a5
    8000293c:	fce31ae3          	bne	t1,a4,80002910 <vm_boot+0x12c>
    80002940:	12000613          	li	a2,288
    80002944:	00000593          	li	a1,0
    80002948:	00010513          	mv	a0,sp
    8000294c:	00004797          	auipc	a5,0x4
    80002950:	e807b623          	sd	zero,-372(a5) # 800067d8 <freelist_nodes+0x3e8>
    80002954:	f08ff0ef          	jal	ra,8000205c <memset>
    80002958:	800007b7          	lui	a5,0x80000
    8000295c:	00f40433          	add	s0,s0,a5
    80002960:	00010513          	mv	a0,sp
    80002964:	10813423          	sd	s0,264(sp)
    80002968:	f64fd0ef          	jal	ra,800000cc <pop_tf>
    8000296c:	12813083          	ld	ra,296(sp)
    80002970:	12013403          	ld	s0,288(sp)
    80002974:	13010113          	addi	sp,sp,304
    80002978:	00008067          	ret
    8000297c:	00100713          	li	a4,1
    80002980:	006367b7          	lui	a5,0x636
    80002984:	00080637          	lui	a2,0x80
    80002988:	3ee78793          	addi	a5,a5,1006 # 6363ee <_start-0x7f9c9c12>
    8000298c:	ffc60613          	addi	a2,a2,-4 # 7fffc <_start-0x7ff80004>
    80002990:	01f71513          	slli	a0,a4,0x1f
    80002994:	03e71693          	slli	a3,a4,0x3e
    80002998:	01c0006f          	j	800029b4 <vm_boot+0x1d0>
    8000299c:	0007202f          	amoadd.w	zero,zero,(a4)
    800029a0:	0017d713          	srli	a4,a5,0x1
    800029a4:	00e7c7b3          	xor	a5,a5,a4
    800029a8:	03e79793          	slli	a5,a5,0x3e
    800029ac:	00d7f7b3          	and	a5,a5,a3
    800029b0:	00e7e7b3          	or	a5,a5,a4
    800029b4:	00c7f733          	and	a4,a5,a2
    800029b8:	0017f593          	andi	a1,a5,1
    800029bc:	00a70733          	add	a4,a4,a0
    800029c0:	fc059ee3          	bnez	a1,8000299c <vm_boot+0x1b8>
    800029c4:	00072003          	lw	zero,0(a4)
    800029c8:	fd9ff06f          	j	800029a0 <vm_boot+0x1bc>
    800029cc:	00002517          	auipc	a0,0x2
    800029d0:	e9c50513          	addi	a0,a0,-356 # 80004868 <pass+0x1ec>
    800029d4:	889ff0ef          	jal	ra,8000225c <cputstring>
    800029d8:	00300513          	li	a0,3
    800029dc:	8c9ff0ef          	jal	ra,800022a4 <terminate>

00000000800029e0 <extra_boot>:
    800029e0:	00008067          	ret

00000000800029e4 <trap_filter>:
    800029e4:	00000513          	li	a0,0
    800029e8:	00008067          	ret

00000000800029ec <pf_filter>:
    800029ec:	00000513          	li	a0,0
    800029f0:	00008067          	ret

00000000800029f4 <userstart>:
    800029f4:	00002417          	auipc	s0,0x2
    800029f8:	60c40413          	addi	s0,s0,1548 # 80005000 <begin_signature>
    800029fc:	00100193          	li	gp,1
    80002a00:	20100313          	li	t1,513
    80002a04:	00141383          	lh	t2,1(s0)
    80002a08:	00730463          	beq	t1,t2,80002a10 <userstart+0x1c>
    80002a0c:	4610106f          	j	8000466c <fail>
    80002a10:	00200193          	li	gp,2
    80002a14:	20100313          	li	t1,513
    80002a18:	00145383          	lhu	t2,1(s0)
    80002a1c:	00730463          	beq	t1,t2,80002a24 <userstart+0x30>
    80002a20:	44d0106f          	j	8000466c <fail>
    80002a24:	00300193          	li	gp,3
    80002a28:	04030337          	lui	t1,0x4030
    80002a2c:	2013031b          	addiw	t1,t1,513
    80002a30:	00142383          	lw	t2,1(s0)
    80002a34:	00730463          	beq	t1,t2,80002a3c <userstart+0x48>
    80002a38:	4350106f          	j	8000466c <fail>
    80002a3c:	00400193          	li	gp,4
    80002a40:	05040337          	lui	t1,0x5040
    80002a44:	3023031b          	addiw	t1,t1,770
    80002a48:	00242383          	lw	t2,2(s0)
    80002a4c:	00730463          	beq	t1,t2,80002a54 <userstart+0x60>
    80002a50:	41d0106f          	j	8000466c <fail>
    80002a54:	00500193          	li	gp,5
    80002a58:	06050337          	lui	t1,0x6050
    80002a5c:	4033031b          	addiw	t1,t1,1027
    80002a60:	00342383          	lw	t2,3(s0)
    80002a64:	00730463          	beq	t1,t2,80002a6c <userstart+0x78>
    80002a68:	4050106f          	j	8000466c <fail>
    80002a6c:	00600193          	li	gp,6
    80002a70:	04030337          	lui	t1,0x4030
    80002a74:	2013031b          	addiw	t1,t1,513
    80002a78:	00146383          	lwu	t2,1(s0)
    80002a7c:	00730463          	beq	t1,t2,80002a84 <userstart+0x90>
    80002a80:	3ed0106f          	j	8000466c <fail>
    80002a84:	00700193          	li	gp,7
    80002a88:	05040337          	lui	t1,0x5040
    80002a8c:	3023031b          	addiw	t1,t1,770
    80002a90:	00246383          	lwu	t2,2(s0)
    80002a94:	00730463          	beq	t1,t2,80002a9c <userstart+0xa8>
    80002a98:	3d50106f          	j	8000466c <fail>
    80002a9c:	00800193          	li	gp,8
    80002aa0:	06050337          	lui	t1,0x6050
    80002aa4:	4033031b          	addiw	t1,t1,1027
    80002aa8:	00346383          	lwu	t2,3(s0)
    80002aac:	00730463          	beq	t1,t2,80002ab4 <userstart+0xc0>
    80002ab0:	3bd0106f          	j	8000466c <fail>
    80002ab4:	00900193          	li	gp,9
    80002ab8:	08070337          	lui	t1,0x8070
    80002abc:	6053031b          	addiw	t1,t1,1541
    80002ac0:	01031313          	slli	t1,t1,0x10
    80002ac4:	40330313          	addi	t1,t1,1027 # 8070403 <_start-0x77f8fbfd>
    80002ac8:	01031313          	slli	t1,t1,0x10
    80002acc:	20130313          	addi	t1,t1,513
    80002ad0:	00143383          	ld	t2,1(s0)
    80002ad4:	00730463          	beq	t1,t2,80002adc <userstart+0xe8>
    80002ad8:	3950106f          	j	8000466c <fail>
    80002adc:	00a00193          	li	gp,10
    80002ae0:	04840337          	lui	t1,0x4840
    80002ae4:	3833031b          	addiw	t1,t1,899
    80002ae8:	00f31313          	slli	t1,t1,0xf
    80002aec:	14130313          	addi	t1,t1,321 # 4840141 <_start-0x7b7bfebf>
    80002af0:	01231313          	slli	t1,t1,0x12
    80002af4:	30230313          	addi	t1,t1,770
    80002af8:	00243383          	ld	t2,2(s0)
    80002afc:	00730463          	beq	t1,t2,80002b04 <userstart+0x110>
    80002b00:	36d0106f          	j	8000466c <fail>
    80002b04:	00b00193          	li	gp,11
    80002b08:	0a091337          	lui	t1,0xa091
    80002b0c:	8073031b          	addiw	t1,t1,-2041
    80002b10:	01031313          	slli	t1,t1,0x10
    80002b14:	60530313          	addi	t1,t1,1541 # a091605 <_start-0x75f6e9fb>
    80002b18:	01031313          	slli	t1,t1,0x10
    80002b1c:	40330313          	addi	t1,t1,1027
    80002b20:	00343383          	ld	t2,3(s0)
    80002b24:	00730463          	beq	t1,t2,80002b2c <userstart+0x138>
    80002b28:	3450106f          	j	8000466c <fail>
    80002b2c:	00c00193          	li	gp,12
    80002b30:	01614337          	lui	t1,0x1614
    80002b34:	1213031b          	addiw	t1,t1,289
    80002b38:	01231313          	slli	t1,t1,0x12
    80002b3c:	38330313          	addi	t1,t1,899 # 1614383 <_start-0x7e9ebc7d>
    80002b40:	01131313          	slli	t1,t1,0x11
    80002b44:	50430313          	addi	t1,t1,1284
    80002b48:	00443383          	ld	t2,4(s0)
    80002b4c:	00730463          	beq	t1,t2,80002b54 <userstart+0x160>
    80002b50:	31d0106f          	j	8000466c <fail>
    80002b54:	00d00193          	li	gp,13
    80002b58:	00060337          	lui	t1,0x60
    80002b5c:	5853031b          	addiw	t1,t1,1413
    80002b60:	00d31313          	slli	t1,t1,0xd
    80002b64:	09130313          	addi	t1,t1,145 # 60091 <_start-0x7ff9ff6f>
    80002b68:	00c31313          	slli	t1,t1,0xc
    80002b6c:	80730313          	addi	t1,t1,-2041
    80002b70:	01031313          	slli	t1,t1,0x10
    80002b74:	60530313          	addi	t1,t1,1541
    80002b78:	00543383          	ld	t2,5(s0)
    80002b7c:	00730463          	beq	t1,t2,80002b84 <userstart+0x190>
    80002b80:	2ed0106f          	j	8000466c <fail>
    80002b84:	00e00193          	li	gp,14
    80002b88:	06860337          	lui	t1,0x6860
    80002b8c:	5853031b          	addiw	t1,t1,1413
    80002b90:	00e31313          	slli	t1,t1,0xe
    80002b94:	12130313          	addi	t1,t1,289 # 6860121 <_start-0x7979fedf>
    80002b98:	01331313          	slli	t1,t1,0x13
    80002b9c:	70630313          	addi	t1,t1,1798
    80002ba0:	00643383          	ld	t2,6(s0)
    80002ba4:	00730463          	beq	t1,t2,80002bac <userstart+0x1b8>
    80002ba8:	2c50106f          	j	8000466c <fail>
    80002bac:	00f00193          	li	gp,15
    80002bb0:	00038337          	lui	t1,0x38
    80002bb4:	3433031b          	addiw	t1,t1,835
    80002bb8:	01131313          	slli	t1,t1,0x11
    80002bbc:	58530313          	addi	t1,t1,1413 # 38585 <_start-0x7ffc7a7b>
    80002bc0:	00d31313          	slli	t1,t1,0xd
    80002bc4:	09130313          	addi	t1,t1,145
    80002bc8:	00c31313          	slli	t1,t1,0xc
    80002bcc:	80730313          	addi	t1,t1,-2041
    80002bd0:	00743383          	ld	t2,7(s0)
    80002bd4:	00730463          	beq	t1,t2,80002bdc <userstart+0x1e8>
    80002bd8:	2950106f          	j	8000466c <fail>
    80002bdc:	01000193          	li	gp,16
    80002be0:	00002337          	lui	t1,0x2
    80002be4:	01f3031b          	addiw	t1,t1,31
    80002be8:	01f41383          	lh	t2,31(s0)
    80002bec:	00730463          	beq	t1,t2,80002bf4 <userstart+0x200>
    80002bf0:	27d0106f          	j	8000466c <fail>
    80002bf4:	01100193          	li	gp,17
    80002bf8:	00002337          	lui	t1,0x2
    80002bfc:	01f3031b          	addiw	t1,t1,31
    80002c00:	01f45383          	lhu	t2,31(s0)
    80002c04:	00730463          	beq	t1,t2,80002c0c <userstart+0x218>
    80002c08:	2650106f          	j	8000466c <fail>
    80002c0c:	01200193          	li	gp,18
    80002c10:	201f2337          	lui	t1,0x201f2
    80002c14:	e1d3031b          	addiw	t1,t1,-483
    80002c18:	01d42383          	lw	t2,29(s0)
    80002c1c:	00730463          	beq	t1,t2,80002c24 <userstart+0x230>
    80002c20:	24d0106f          	j	8000466c <fail>
    80002c24:	01300193          	li	gp,19
    80002c28:	21202337          	lui	t1,0x21202
    80002c2c:	f1e3031b          	addiw	t1,t1,-226
    80002c30:	01e42383          	lw	t2,30(s0)
    80002c34:	00730463          	beq	t1,t2,80002c3c <userstart+0x248>
    80002c38:	2350106f          	j	8000466c <fail>
    80002c3c:	01400193          	li	gp,20
    80002c40:	22212337          	lui	t1,0x22212
    80002c44:	01f3031b          	addiw	t1,t1,31
    80002c48:	01f42383          	lw	t2,31(s0)
    80002c4c:	00730463          	beq	t1,t2,80002c54 <userstart+0x260>
    80002c50:	21d0106f          	j	8000466c <fail>
    80002c54:	01500193          	li	gp,21
    80002c58:	201f2337          	lui	t1,0x201f2
    80002c5c:	e1d3031b          	addiw	t1,t1,-483
    80002c60:	01d46383          	lwu	t2,29(s0)
    80002c64:	00730463          	beq	t1,t2,80002c6c <userstart+0x278>
    80002c68:	2050106f          	j	8000466c <fail>
    80002c6c:	01600193          	li	gp,22
    80002c70:	21202337          	lui	t1,0x21202
    80002c74:	f1e3031b          	addiw	t1,t1,-226
    80002c78:	01e46383          	lwu	t2,30(s0)
    80002c7c:	00730463          	beq	t1,t2,80002c84 <userstart+0x290>
    80002c80:	1ed0106f          	j	8000466c <fail>
    80002c84:	01700193          	li	gp,23
    80002c88:	22212337          	lui	t1,0x22212
    80002c8c:	01f3031b          	addiw	t1,t1,31
    80002c90:	01f46383          	lwu	t2,31(s0)
    80002c94:	00730463          	beq	t1,t2,80002c9c <userstart+0x2a8>
    80002c98:	1d50106f          	j	8000466c <fail>
    80002c9c:	01800193          	li	gp,24
    80002ca0:	00101337          	lui	t1,0x101
    80002ca4:	f8f3031b          	addiw	t1,t1,-113
    80002ca8:	00f31313          	slli	t1,t1,0xf
    80002cac:	74730313          	addi	t1,t1,1863 # 101747 <_start-0x7fefe8b9>
    80002cb0:	00d31313          	slli	t1,t1,0xd
    80002cb4:	0d930313          	addi	t1,t1,217
    80002cb8:	00d31313          	slli	t1,t1,0xd
    80002cbc:	a1930313          	addi	t1,t1,-1511
    80002cc0:	01943383          	ld	t2,25(s0)
    80002cc4:	00730463          	beq	t1,t2,80002ccc <userstart+0x2d8>
    80002cc8:	1a50106f          	j	8000466c <fail>
    80002ccc:	01900193          	li	gp,25
    80002cd0:	01090337          	lui	t1,0x1090
    80002cd4:	0f93031b          	addiw	t1,t1,249
    80002cd8:	00c31313          	slli	t1,t1,0xc
    80002cdc:	f0f30313          	addi	t1,t1,-241 # 108ff0f <_start-0x7ef700f1>
    80002ce0:	00c31313          	slli	t1,t1,0xc
    80002ce4:	8e130313          	addi	t1,t1,-1823
    80002ce8:	00d31313          	slli	t1,t1,0xd
    80002cec:	b1a30313          	addi	t1,t1,-1254
    80002cf0:	01a43383          	ld	t2,26(s0)
    80002cf4:	00730463          	beq	t1,t2,80002cfc <userstart+0x308>
    80002cf8:	1750106f          	j	8000466c <fail>
    80002cfc:	01a00193          	li	gp,26
    80002d00:	01111337          	lui	t1,0x1111
    80002d04:	9013031b          	addiw	t1,t1,-1791
    80002d08:	00c31313          	slli	t1,t1,0xc
    80002d0c:	f8f30313          	addi	t1,t1,-113 # 1110f8f <_start-0x7eeef071>
    80002d10:	00c31313          	slli	t1,t1,0xc
    80002d14:	0e930313          	addi	t1,t1,233
    80002d18:	00d31313          	slli	t1,t1,0xd
    80002d1c:	c1b30313          	addi	t1,t1,-997
    80002d20:	01b43383          	ld	t2,27(s0)
    80002d24:	00730463          	beq	t1,t2,80002d2c <userstart+0x338>
    80002d28:	1450106f          	j	8000466c <fail>
    80002d2c:	01b00193          	li	gp,27
    80002d30:	00119337          	lui	t1,0x119
    80002d34:	1113031b          	addiw	t1,t1,273
    80002d38:	00c31313          	slli	t1,t1,0xc
    80002d3c:	90130313          	addi	t1,t1,-1791 # 118901 <_start-0x7fee76ff>
    80002d40:	01031313          	slli	t1,t1,0x10
    80002d44:	8f130313          	addi	t1,t1,-1807
    80002d48:	00d31313          	slli	t1,t1,0xd
    80002d4c:	d1c30313          	addi	t1,t1,-740
    80002d50:	01c43383          	ld	t2,28(s0)
    80002d54:	00730463          	beq	t1,t2,80002d5c <userstart+0x368>
    80002d58:	1150106f          	j	8000466c <fail>
    80002d5c:	01c00193          	li	gp,28
    80002d60:	00121337          	lui	t1,0x121
    80002d64:	1913031b          	addiw	t1,t1,401
    80002d68:	00c31313          	slli	t1,t1,0xc
    80002d6c:	10930313          	addi	t1,t1,265 # 121109 <_start-0x7fedeef7>
    80002d70:	01031313          	slli	t1,t1,0x10
    80002d74:	0f930313          	addi	t1,t1,249
    80002d78:	00d31313          	slli	t1,t1,0xd
    80002d7c:	e1d30313          	addi	t1,t1,-483
    80002d80:	01d43383          	ld	t2,29(s0)
    80002d84:	00730463          	beq	t1,t2,80002d8c <userstart+0x398>
    80002d88:	0e50106f          	j	8000466c <fail>
    80002d8c:	01d00193          	li	gp,29
    80002d90:	01292337          	lui	t1,0x1292
    80002d94:	1193031b          	addiw	t1,t1,281
    80002d98:	00c31313          	slli	t1,t1,0xc
    80002d9c:	11130313          	addi	t1,t1,273 # 1292111 <_start-0x7ed6deef>
    80002da0:	00c31313          	slli	t1,t1,0xc
    80002da4:	90130313          	addi	t1,t1,-1791
    80002da8:	00d31313          	slli	t1,t1,0xd
    80002dac:	f1e30313          	addi	t1,t1,-226
    80002db0:	01e43383          	ld	t2,30(s0)
    80002db4:	00730463          	beq	t1,t2,80002dbc <userstart+0x3c8>
    80002db8:	0b50106f          	j	8000466c <fail>
    80002dbc:	01e00193          	li	gp,30
    80002dc0:	01313337          	lui	t1,0x1313
    80002dc4:	9213031b          	addiw	t1,t1,-1759
    80002dc8:	00c31313          	slli	t1,t1,0xc
    80002dcc:	19130313          	addi	t1,t1,401 # 1313191 <_start-0x7ecece6f>
    80002dd0:	00c31313          	slli	t1,t1,0xc
    80002dd4:	10930313          	addi	t1,t1,265
    80002dd8:	00d31313          	slli	t1,t1,0xd
    80002ddc:	01f30313          	addi	t1,t1,31
    80002de0:	01f43383          	ld	t2,31(s0)
    80002de4:	00730463          	beq	t1,t2,80002dec <userstart+0x3f8>
    80002de8:	0850106f          	j	8000466c <fail>
    80002dec:	01f00193          	li	gp,31
    80002df0:	00004337          	lui	t1,0x4
    80002df4:	03f3031b          	addiw	t1,t1,63
    80002df8:	03f41383          	lh	t2,63(s0)
    80002dfc:	00730463          	beq	t1,t2,80002e04 <userstart+0x410>
    80002e00:	06d0106f          	j	8000466c <fail>
    80002e04:	02000193          	li	gp,32
    80002e08:	00004337          	lui	t1,0x4
    80002e0c:	03f3031b          	addiw	t1,t1,63
    80002e10:	03f45383          	lhu	t2,63(s0)
    80002e14:	00730463          	beq	t1,t2,80002e1c <userstart+0x428>
    80002e18:	0550106f          	j	8000466c <fail>
    80002e1c:	02100193          	li	gp,33
    80002e20:	403f4337          	lui	t1,0x403f4
    80002e24:	e3d3031b          	addiw	t1,t1,-451
    80002e28:	03d42383          	lw	t2,61(s0)
    80002e2c:	00730463          	beq	t1,t2,80002e34 <userstart+0x440>
    80002e30:	03d0106f          	j	8000466c <fail>
    80002e34:	02200193          	li	gp,34
    80002e38:	41404337          	lui	t1,0x41404
    80002e3c:	f3e3031b          	addiw	t1,t1,-194
    80002e40:	03e42383          	lw	t2,62(s0)
    80002e44:	00730463          	beq	t1,t2,80002e4c <userstart+0x458>
    80002e48:	0250106f          	j	8000466c <fail>
    80002e4c:	02300193          	li	gp,35
    80002e50:	42414337          	lui	t1,0x42414
    80002e54:	03f3031b          	addiw	t1,t1,63
    80002e58:	03f42383          	lw	t2,63(s0)
    80002e5c:	00730463          	beq	t1,t2,80002e64 <userstart+0x470>
    80002e60:	00d0106f          	j	8000466c <fail>
    80002e64:	02400193          	li	gp,36
    80002e68:	403f4337          	lui	t1,0x403f4
    80002e6c:	e3d3031b          	addiw	t1,t1,-451
    80002e70:	03d46383          	lwu	t2,61(s0)
    80002e74:	00730463          	beq	t1,t2,80002e7c <userstart+0x488>
    80002e78:	7f40106f          	j	8000466c <fail>
    80002e7c:	02500193          	li	gp,37
    80002e80:	41404337          	lui	t1,0x41404
    80002e84:	f3e3031b          	addiw	t1,t1,-194
    80002e88:	03e46383          	lwu	t2,62(s0)
    80002e8c:	00730463          	beq	t1,t2,80002e94 <userstart+0x4a0>
    80002e90:	7dc0106f          	j	8000466c <fail>
    80002e94:	02600193          	li	gp,38
    80002e98:	42414337          	lui	t1,0x42414
    80002e9c:	03f3031b          	addiw	t1,t1,63
    80002ea0:	03f46383          	lwu	t2,63(s0)
    80002ea4:	00730463          	beq	t1,t2,80002eac <userstart+0x4b8>
    80002ea8:	7c40106f          	j	8000466c <fail>
    80002eac:	02700193          	li	gp,39
    80002eb0:	01010337          	lui	t1,0x1010
    80002eb4:	cf93031b          	addiw	t1,t1,-775
    80002eb8:	00c31313          	slli	t1,t1,0xc
    80002ebc:	f4f30313          	addi	t1,t1,-177 # 100ff4f <_start-0x7eff00b1>
    80002ec0:	00c31313          	slli	t1,t1,0xc
    80002ec4:	0ed30313          	addi	t1,t1,237
    80002ec8:	00e31313          	slli	t1,t1,0xe
    80002ecc:	a3930313          	addi	t1,t1,-1479
    80002ed0:	03943383          	ld	t2,57(s0)
    80002ed4:	00730463          	beq	t1,t2,80002edc <userstart+0x4e8>
    80002ed8:	7940106f          	j	8000466c <fail>
    80002edc:	02800193          	li	gp,40
    80002ee0:	01050337          	lui	t1,0x1050
    80002ee4:	0fd3031b          	addiw	t1,t1,253
    80002ee8:	00c31313          	slli	t1,t1,0xc
    80002eec:	f8f30313          	addi	t1,t1,-113 # 104ff8f <_start-0x7efb0071>
    80002ef0:	00c31313          	slli	t1,t1,0xc
    80002ef4:	4f130313          	addi	t1,t1,1265
    80002ef8:	00e31313          	slli	t1,t1,0xe
    80002efc:	b3a30313          	addi	t1,t1,-1222
    80002f00:	03a43383          	ld	t2,58(s0)
    80002f04:	00730463          	beq	t1,t2,80002f0c <userstart+0x518>
    80002f08:	7640106f          	j	8000466c <fail>
    80002f0c:	02900193          	li	gp,41
    80002f10:	00011337          	lui	t1,0x11
    80002f14:	9053031b          	addiw	t1,t1,-1787
    80002f18:	01031313          	slli	t1,t1,0x10
    80002f1c:	0fd30313          	addi	t1,t1,253 # 110fd <_start-0x7ffeef03>
    80002f20:	01031313          	slli	t1,t1,0x10
    80002f24:	8f530313          	addi	t1,t1,-1803
    80002f28:	00e31313          	slli	t1,t1,0xe
    80002f2c:	c3b30313          	addi	t1,t1,-965
    80002f30:	03b43383          	ld	t2,59(s0)
    80002f34:	00730463          	beq	t1,t2,80002f3c <userstart+0x548>
    80002f38:	7340106f          	j	8000466c <fail>
    80002f3c:	02a00193          	li	gp,42
    80002f40:	00011337          	lui	t1,0x11
    80002f44:	d093031b          	addiw	t1,t1,-759
    80002f48:	01031313          	slli	t1,t1,0x10
    80002f4c:	50130313          	addi	t1,t1,1281 # 11501 <_start-0x7ffeeaff>
    80002f50:	01031313          	slli	t1,t1,0x10
    80002f54:	cf930313          	addi	t1,t1,-775
    80002f58:	00e31313          	slli	t1,t1,0xe
    80002f5c:	d3c30313          	addi	t1,t1,-708
    80002f60:	03c43383          	ld	t2,60(s0)
    80002f64:	00730463          	beq	t1,t2,80002f6c <userstart+0x578>
    80002f68:	7040106f          	j	8000466c <fail>
    80002f6c:	02b00193          	li	gp,43
    80002f70:	00111337          	lui	t1,0x111
    80002f74:	0d13031b          	addiw	t1,t1,209
    80002f78:	00c31313          	slli	t1,t1,0xc
    80002f7c:	90530313          	addi	t1,t1,-1787 # 110905 <_start-0x7feef6fb>
    80002f80:	01031313          	slli	t1,t1,0x10
    80002f84:	0fd30313          	addi	t1,t1,253
    80002f88:	00e31313          	slli	t1,t1,0xe
    80002f8c:	e3d30313          	addi	t1,t1,-451
    80002f90:	03d43383          	ld	t2,61(s0)
    80002f94:	00730463          	beq	t1,t2,80002f9c <userstart+0x5a8>
    80002f98:	6d40106f          	j	8000466c <fail>
    80002f9c:	02c00193          	li	gp,44
    80002fa0:	00115337          	lui	t1,0x115
    80002fa4:	1113031b          	addiw	t1,t1,273
    80002fa8:	00c31313          	slli	t1,t1,0xc
    80002fac:	d0930313          	addi	t1,t1,-759 # 114d09 <_start-0x7feeb2f7>
    80002fb0:	01031313          	slli	t1,t1,0x10
    80002fb4:	50130313          	addi	t1,t1,1281
    80002fb8:	00e31313          	slli	t1,t1,0xe
    80002fbc:	f3e30313          	addi	t1,t1,-194
    80002fc0:	03e43383          	ld	t2,62(s0)
    80002fc4:	00730463          	beq	t1,t2,80002fcc <userstart+0x5d8>
    80002fc8:	6a40106f          	j	8000466c <fail>
    80002fcc:	02d00193          	li	gp,45
    80002fd0:	01191337          	lui	t1,0x1191
    80002fd4:	5113031b          	addiw	t1,t1,1297
    80002fd8:	00c31313          	slli	t1,t1,0xc
    80002fdc:	0d130313          	addi	t1,t1,209 # 11910d1 <_start-0x7ee6ef2f>
    80002fe0:	00c31313          	slli	t1,t1,0xc
    80002fe4:	90530313          	addi	t1,t1,-1787
    80002fe8:	00e31313          	slli	t1,t1,0xe
    80002fec:	03f30313          	addi	t1,t1,63
    80002ff0:	03f43383          	ld	t2,63(s0)
    80002ff4:	00730463          	beq	t1,t2,80002ffc <userstart+0x608>
    80002ff8:	6740106f          	j	8000466c <fail>
    80002ffc:	02e00193          	li	gp,46
    80003000:	ffff8337          	lui	t1,0xffff8
    80003004:	1803031b          	addiw	t1,t1,384
    80003008:	006410a3          	sh	t1,1(s0)
    8000300c:	00141383          	lh	t2,1(s0)
    80003010:	00730463          	beq	t1,t2,80003018 <userstart+0x624>
    80003014:	6580106f          	j	8000466c <fail>
    80003018:	02f00193          	li	gp,47
    8000301c:	00008337          	lui	t1,0x8
    80003020:	3823031b          	addiw	t1,t1,898
    80003024:	006410a3          	sh	t1,1(s0)
    80003028:	00145383          	lhu	t2,1(s0)
    8000302c:	00730463          	beq	t1,t2,80003034 <userstart+0x640>
    80003030:	63c0106f          	j	8000466c <fail>
    80003034:	03000193          	li	gp,48
    80003038:	87868337          	lui	t1,0x87868
    8000303c:	5843031b          	addiw	t1,t1,1412
    80003040:	006420a3          	sw	t1,1(s0)
    80003044:	00142383          	lw	t2,1(s0)
    80003048:	00730463          	beq	t1,t2,80003050 <userstart+0x65c>
    8000304c:	6200106f          	j	8000466c <fail>
    80003050:	03100193          	li	gp,49
    80003054:	8b8a9337          	lui	t1,0x8b8a9
    80003058:	9883031b          	addiw	t1,t1,-1656
    8000305c:	00642123          	sw	t1,2(s0)
    80003060:	00242383          	lw	t2,2(s0)
    80003064:	00730463          	beq	t1,t2,8000306c <userstart+0x678>
    80003068:	6040106f          	j	8000466c <fail>
    8000306c:	03200193          	li	gp,50
    80003070:	8f8e9337          	lui	t1,0x8f8e9
    80003074:	d8c3031b          	addiw	t1,t1,-628
    80003078:	006421a3          	sw	t1,3(s0)
    8000307c:	00342383          	lw	t2,3(s0)
    80003080:	00730463          	beq	t1,t2,80003088 <userstart+0x694>
    80003084:	5e80106f          	j	8000466c <fail>
    80003088:	03300193          	li	gp,51
    8000308c:	00094337          	lui	t1,0x94
    80003090:	9293031b          	addiw	t1,t1,-1751
    80003094:	00c31313          	slli	t1,t1,0xc
    80003098:	19030313          	addi	t1,t1,400 # 94190 <_start-0x7ff6be70>
    8000309c:	006420a3          	sw	t1,1(s0)
    800030a0:	00146383          	lwu	t2,1(s0)
    800030a4:	00730463          	beq	t1,t2,800030ac <userstart+0x6b8>
    800030a8:	5c40106f          	j	8000466c <fail>
    800030ac:	03400193          	li	gp,52
    800030b0:	00098337          	lui	t1,0x98
    800030b4:	9693031b          	addiw	t1,t1,-1687
    800030b8:	00c31313          	slli	t1,t1,0xc
    800030bc:	59430313          	addi	t1,t1,1428 # 98594 <_start-0x7ff67a6c>
    800030c0:	00642123          	sw	t1,2(s0)
    800030c4:	00246383          	lwu	t2,2(s0)
    800030c8:	00730463          	beq	t1,t2,800030d0 <userstart+0x6dc>
    800030cc:	5a00106f          	j	8000466c <fail>
    800030d0:	03500193          	li	gp,53
    800030d4:	0004e337          	lui	t1,0x4e
    800030d8:	cd53031b          	addiw	t1,t1,-811
    800030dc:	00d31313          	slli	t1,t1,0xd
    800030e0:	99830313          	addi	t1,t1,-1640 # 4d998 <_start-0x7ffb2668>
    800030e4:	006421a3          	sw	t1,3(s0)
    800030e8:	00346383          	lwu	t2,3(s0)
    800030ec:	00730463          	beq	t1,t2,800030f4 <userstart+0x700>
    800030f0:	57c0106f          	j	8000466c <fail>
    800030f4:	03600193          	li	gp,54
    800030f8:	ffd1d337          	lui	t1,0xffd1d
    800030fc:	1513031b          	addiw	t1,t1,337
    80003100:	00c31313          	slli	t1,t1,0xc
    80003104:	d0530313          	addi	t1,t1,-763 # ffffffffffd1cd05 <freelist_head+0xffffffff7fd11cfd>
    80003108:	01031313          	slli	t1,t1,0x10
    8000310c:	cf530313          	addi	t1,t1,-779
    80003110:	00d31313          	slli	t1,t1,0xd
    80003114:	d9c30313          	addi	t1,t1,-612
    80003118:	006430a3          	sd	t1,1(s0)
    8000311c:	00143383          	ld	t2,1(s0)
    80003120:	00730463          	beq	t1,t2,80003128 <userstart+0x734>
    80003124:	5480106f          	j	8000466c <fail>
    80003128:	03700193          	li	gp,55
    8000312c:	ff575337          	lui	t1,0xff575
    80003130:	5533031b          	addiw	t1,t1,1363
    80003134:	00c31313          	slli	t1,t1,0xc
    80003138:	51530313          	addi	t1,t1,1301 # ffffffffff575515 <freelist_head+0xffffffff7f56a50d>
    8000313c:	00e31313          	slli	t1,t1,0xe
    80003140:	d3530313          	addi	t1,t1,-715
    80003144:	00d31313          	slli	t1,t1,0xd
    80003148:	5a430313          	addi	t1,t1,1444
    8000314c:	00643123          	sd	t1,2(s0)
    80003150:	00243383          	ld	t2,2(s0)
    80003154:	00730463          	beq	t1,t2,8000315c <userstart+0x768>
    80003158:	5140106f          	j	8000466c <fail>
    8000315c:	03800193          	li	gp,56
    80003160:	ffd9e337          	lui	t1,0xffd9e
    80003164:	9593031b          	addiw	t1,t1,-1703
    80003168:	00d31313          	slli	t1,t1,0xd
    8000316c:	b0b30313          	addi	t1,t1,-1269 # ffffffffffd9db0b <freelist_head+0xffffffff7fd92b03>
    80003170:	01031313          	slli	t1,t1,0x10
    80003174:	aeb30313          	addi	t1,t1,-1301
    80003178:	00c31313          	slli	t1,t1,0xc
    8000317c:	dac30313          	addi	t1,t1,-596
    80003180:	006431a3          	sd	t1,3(s0)
    80003184:	00343383          	ld	t2,3(s0)
    80003188:	00730463          	beq	t1,t2,80003190 <userstart+0x79c>
    8000318c:	4e00106f          	j	8000466c <fail>
    80003190:	03900193          	li	gp,57
    80003194:	ff777337          	lui	t1,0xff777
    80003198:	5733031b          	addiw	t1,t1,1395
    8000319c:	00c31313          	slli	t1,t1,0xc
    800031a0:	71730313          	addi	t1,t1,1815 # ffffffffff777717 <freelist_head+0xffffffff7f76c70f>
    800031a4:	00f31313          	slli	t1,t1,0xf
    800031a8:	b6b30313          	addi	t1,t1,-1173
    800031ac:	00c31313          	slli	t1,t1,0xc
    800031b0:	5b430313          	addi	t1,t1,1460
    800031b4:	00643223          	sd	t1,4(s0)
    800031b8:	00443383          	ld	t2,4(s0)
    800031bc:	00730463          	beq	t1,t2,800031c4 <userstart+0x7d0>
    800031c0:	4ac0106f          	j	8000466c <fail>
    800031c4:	03a00193          	li	gp,58
    800031c8:	ffff1337          	lui	t1,0xffff1
    800031cc:	f0b3031b          	addiw	t1,t1,-245
    800031d0:	01031313          	slli	t1,t1,0x10
    800031d4:	70330313          	addi	t1,t1,1795 # ffffffffffff1703 <freelist_head+0xffffffff7ffe66fb>
    800031d8:	01031313          	slli	t1,t1,0x10
    800031dc:	efb30313          	addi	t1,t1,-261
    800031e0:	00e31313          	slli	t1,t1,0xe
    800031e4:	dbc30313          	addi	t1,t1,-580
    800031e8:	006432a3          	sd	t1,5(s0)
    800031ec:	00543383          	ld	t2,5(s0)
    800031f0:	00730463          	beq	t1,t2,800031f8 <userstart+0x804>
    800031f4:	4780106f          	j	8000466c <fail>
    800031f8:	03b00193          	li	gp,59
    800031fc:	ffe5e337          	lui	t1,0xffe5e
    80003200:	5653031b          	addiw	t1,t1,1381
    80003204:	00e31313          	slli	t1,t1,0xe
    80003208:	91930313          	addi	t1,t1,-1767 # ffffffffffe5d919 <freelist_head+0xffffffff7fe52911>
    8000320c:	00d31313          	slli	t1,t1,0xd
    80003210:	f1b30313          	addi	t1,t1,-229
    80003214:	00e31313          	slli	t1,t1,0xe
    80003218:	5c430313          	addi	t1,t1,1476
    8000321c:	00643323          	sd	t1,6(s0)
    80003220:	00643383          	ld	t2,6(s0)
    80003224:	00730463          	beq	t1,t2,8000322c <userstart+0x838>
    80003228:	4440106f          	j	8000466c <fail>
    8000322c:	03c00193          	li	gp,60
    80003230:	ffe9f337          	lui	t1,0xffe9f
    80003234:	9693031b          	addiw	t1,t1,-1687
    80003238:	00d31313          	slli	t1,t1,0xd
    8000323c:	d0d30313          	addi	t1,t1,-755 # ffffffffffe9ed0d <freelist_head+0xffffffff7fe93d05>
    80003240:	01031313          	slli	t1,t1,0x10
    80003244:	ced30313          	addi	t1,t1,-787
    80003248:	00c31313          	slli	t1,t1,0xc
    8000324c:	dcc30313          	addi	t1,t1,-564
    80003250:	006433a3          	sd	t1,7(s0)
    80003254:	00743383          	ld	t2,7(s0)
    80003258:	00730463          	beq	t1,t2,80003260 <userstart+0x86c>
    8000325c:	4100106f          	j	8000466c <fail>
    80003260:	03d00193          	li	gp,61
    80003264:	ffffd337          	lui	t1,0xffffd
    80003268:	5d43031b          	addiw	t1,t1,1492
    8000326c:	00641fa3          	sh	t1,31(s0)
    80003270:	01f41383          	lh	t2,31(s0)
    80003274:	00730463          	beq	t1,t2,8000327c <userstart+0x888>
    80003278:	3f40106f          	j	8000466c <fail>
    8000327c:	03e00193          	li	gp,62
    80003280:	0000d337          	lui	t1,0xd
    80003284:	7d63031b          	addiw	t1,t1,2006
    80003288:	00641fa3          	sh	t1,31(s0)
    8000328c:	01f45383          	lhu	t2,31(s0)
    80003290:	00730463          	beq	t1,t2,80003298 <userstart+0x8a4>
    80003294:	3d80106f          	j	8000466c <fail>
    80003298:	03f00193          	li	gp,63
    8000329c:	dbdae337          	lui	t1,0xdbdae
    800032a0:	9d83031b          	addiw	t1,t1,-1576
    800032a4:	00642ea3          	sw	t1,29(s0)
    800032a8:	01d42383          	lw	t2,29(s0)
    800032ac:	00730463          	beq	t1,t2,800032b4 <userstart+0x8c0>
    800032b0:	3bc0106f          	j	8000466c <fail>
    800032b4:	04000193          	li	gp,64
    800032b8:	dfdee337          	lui	t1,0xdfdee
    800032bc:	ddc3031b          	addiw	t1,t1,-548
    800032c0:	00642f23          	sw	t1,30(s0)
    800032c4:	01e42383          	lw	t2,30(s0)
    800032c8:	00730463          	beq	t1,t2,800032d0 <userstart+0x8dc>
    800032cc:	3a00106f          	j	8000466c <fail>
    800032d0:	04100193          	li	gp,65
    800032d4:	e3e2e337          	lui	t1,0xe3e2e
    800032d8:	1e03031b          	addiw	t1,t1,480
    800032dc:	00642fa3          	sw	t1,31(s0)
    800032e0:	01f42383          	lw	t2,31(s0)
    800032e4:	00730463          	beq	t1,t2,800032ec <userstart+0x8f8>
    800032e8:	3840106f          	j	8000466c <fail>
    800032ec:	04200193          	li	gp,66
    800032f0:	00074337          	lui	t1,0x74
    800032f4:	f373031b          	addiw	t1,t1,-201
    800032f8:	00d31313          	slli	t1,t1,0xd
    800032fc:	5e430313          	addi	t1,t1,1508 # 745e4 <_start-0x7ff8ba1c>
    80003300:	00642ea3          	sw	t1,29(s0)
    80003304:	01d46383          	lwu	t2,29(s0)
    80003308:	00730463          	beq	t1,t2,80003310 <userstart+0x91c>
    8000330c:	3600106f          	j	8000466c <fail>
    80003310:	04300193          	li	gp,67
    80003314:	000ec337          	lui	t1,0xec
    80003318:	eaf3031b          	addiw	t1,t1,-337
    8000331c:	00c31313          	slli	t1,t1,0xc
    80003320:	9e830313          	addi	t1,t1,-1560 # eb9e8 <_start-0x7ff14618>
    80003324:	00642f23          	sw	t1,30(s0)
    80003328:	01e46383          	lwu	t2,30(s0)
    8000332c:	00730463          	beq	t1,t2,80003334 <userstart+0x940>
    80003330:	33c0106f          	j	8000466c <fail>
    80003334:	04400193          	li	gp,68
    80003338:	000f0337          	lui	t1,0xf0
    8000333c:	eef3031b          	addiw	t1,t1,-273
    80003340:	00c31313          	slli	t1,t1,0xc
    80003344:	dec30313          	addi	t1,t1,-532 # efdec <_start-0x7ff10214>
    80003348:	00642fa3          	sw	t1,31(s0)
    8000334c:	01f46383          	lwu	t2,31(s0)
    80003350:	00730463          	beq	t1,t2,80003358 <userstart+0x964>
    80003354:	3180106f          	j	8000466c <fail>
    80003358:	04500193          	li	gp,69
    8000335c:	fffc0337          	lui	t1,0xfffc0
    80003360:	b7b3031b          	addiw	t1,t1,-1157
    80003364:	00f31313          	slli	t1,t1,0xf
    80003368:	d3d30313          	addi	t1,t1,-707 # fffffffffffbfd3d <freelist_head+0xffffffff7ffb4d35>
    8000336c:	00e31313          	slli	t1,t1,0xe
    80003370:	f2f30313          	addi	t1,t1,-209
    80003374:	00c31313          	slli	t1,t1,0xc
    80003378:	1f030313          	addi	t1,t1,496
    8000337c:	00643ca3          	sd	t1,25(s0)
    80003380:	01943383          	ld	t2,25(s0)
    80003384:	00730463          	beq	t1,t2,8000338c <userstart+0x998>
    80003388:	2e40106f          	j	8000466c <fail>
    8000338c:	04600193          	li	gp,70
    80003390:	ffff0337          	lui	t1,0xffff0
    80003394:	dfd3031b          	addiw	t1,t1,-515
    80003398:	01031313          	slli	t1,t1,0x10
    8000339c:	bfb30313          	addi	t1,t1,-1029 # fffffffffffefbfb <freelist_head+0xffffffff7ffe4bf3>
    800033a0:	01031313          	slli	t1,t1,0x10
    800033a4:	9f830313          	addi	t1,t1,-1544
    800033a8:	00643d23          	sd	t1,26(s0)
    800033ac:	01a43383          	ld	t2,26(s0)
    800033b0:	00730463          	beq	t1,t2,800033b8 <userstart+0x9c4>
    800033b4:	2b80106f          	j	8000466c <fail>
    800033b8:	04700193          	li	gp,71
    800033bc:	01c18337          	lui	t1,0x1c18
    800033c0:	1413031b          	addiw	t1,t1,321
    800033c4:	01131313          	slli	t1,t1,0x11
    800033c8:	18130313          	addi	t1,t1,385 # 1c18181 <_start-0x7e3e7e7f>
    800033cc:	01131313          	slli	t1,t1,0x11
    800033d0:	10030313          	addi	t1,t1,256
    800033d4:	00643da3          	sd	t1,27(s0)
    800033d8:	01b43383          	ld	t2,27(s0)
    800033dc:	00730463          	beq	t1,t2,800033e4 <userstart+0x9f0>
    800033e0:	28c0106f          	j	8000466c <fail>
    800033e4:	04800193          	li	gp,72
    800033e8:	00f0e337          	lui	t1,0xf0e
    800033ec:	0d13031b          	addiw	t1,t1,209
    800033f0:	00c31313          	slli	t1,t1,0xc
    800033f4:	c0b30313          	addi	t1,t1,-1013 # f0dc0b <_start-0x7f0f23f5>
    800033f8:	00c31313          	slli	t1,t1,0xc
    800033fc:	0a130313          	addi	t1,t1,161
    80003400:	00c31313          	slli	t1,t1,0xc
    80003404:	90830313          	addi	t1,t1,-1784
    80003408:	00643e23          	sd	t1,28(s0)
    8000340c:	01c43383          	ld	t2,28(s0)
    80003410:	00730463          	beq	t1,t2,80003418 <userstart+0xa24>
    80003414:	2580106f          	j	8000466c <fail>
    80003418:	04900193          	li	gp,73
    8000341c:	01716337          	lui	t1,0x1716
    80003420:	1513031b          	addiw	t1,t1,337
    80003424:	00c31313          	slli	t1,t1,0xc
    80003428:	41330313          	addi	t1,t1,1043 # 1716413 <_start-0x7e8e9bed>
    8000342c:	00c31313          	slli	t1,t1,0xc
    80003430:	12130313          	addi	t1,t1,289
    80003434:	00c31313          	slli	t1,t1,0xc
    80003438:	11030313          	addi	t1,t1,272
    8000343c:	00643ea3          	sd	t1,29(s0)
    80003440:	01d43383          	ld	t2,29(s0)
    80003444:	00730463          	beq	t1,t2,8000344c <userstart+0xa58>
    80003448:	2240106f          	j	8000466c <fail>
    8000344c:	04a00193          	li	gp,74
    80003450:	001f2337          	lui	t1,0x1f2
    80003454:	e1d3031b          	addiw	t1,t1,-483
    80003458:	00e31313          	slli	t1,t1,0xe
    8000345c:	70730313          	addi	t1,t1,1799 # 1f2707 <_start-0x7fe0d8f9>
    80003460:	00d31313          	slli	t1,t1,0xd
    80003464:	8d130313          	addi	t1,t1,-1839
    80003468:	00d31313          	slli	t1,t1,0xd
    8000346c:	91830313          	addi	t1,t1,-1768
    80003470:	00643f23          	sd	t1,30(s0)
    80003474:	01e43383          	ld	t2,30(s0)
    80003478:	00730463          	beq	t1,t2,80003480 <userstart+0xa8c>
    8000347c:	1f00106f          	j	8000466c <fail>
    80003480:	04b00193          	li	gp,75
    80003484:	009ca337          	lui	t1,0x9ca
    80003488:	8953031b          	addiw	t1,t1,-1899
    8000348c:	00c31313          	slli	t1,t1,0xc
    80003490:	90930313          	addi	t1,t1,-1783 # 9c9909 <_start-0x7f6366f7>
    80003494:	00d31313          	slli	t1,t1,0xd
    80003498:	91130313          	addi	t1,t1,-1775
    8000349c:	00d31313          	slli	t1,t1,0xd
    800034a0:	12030313          	addi	t1,t1,288
    800034a4:	00643fa3          	sd	t1,31(s0)
    800034a8:	01f43383          	ld	t2,31(s0)
    800034ac:	00730463          	beq	t1,t2,800034b4 <userstart+0xac0>
    800034b0:	1bc0106f          	j	8000466c <fail>
    800034b4:	04c00193          	li	gp,76
    800034b8:	00003337          	lui	t1,0x3
    800034bc:	5343031b          	addiw	t1,t1,1332
    800034c0:	02641fa3          	sh	t1,63(s0)
    800034c4:	03f41383          	lh	t2,63(s0)
    800034c8:	00730463          	beq	t1,t2,800034d0 <userstart+0xadc>
    800034cc:	1a00106f          	j	8000466c <fail>
    800034d0:	04d00193          	li	gp,77
    800034d4:	00003337          	lui	t1,0x3
    800034d8:	7363031b          	addiw	t1,t1,1846
    800034dc:	02641fa3          	sh	t1,63(s0)
    800034e0:	03f45383          	lhu	t2,63(s0)
    800034e4:	00730463          	beq	t1,t2,800034ec <userstart+0xaf8>
    800034e8:	1840106f          	j	8000466c <fail>
    800034ec:	04e00193          	li	gp,78
    800034f0:	3b3a4337          	lui	t1,0x3b3a4
    800034f4:	9383031b          	addiw	t1,t1,-1736
    800034f8:	02642ea3          	sw	t1,61(s0)
    800034fc:	03d42383          	lw	t2,61(s0)
    80003500:	00730463          	beq	t1,t2,80003508 <userstart+0xb14>
    80003504:	1680106f          	j	8000466c <fail>
    80003508:	04f00193          	li	gp,79
    8000350c:	3f3e4337          	lui	t1,0x3f3e4
    80003510:	d3c3031b          	addiw	t1,t1,-708
    80003514:	02642f23          	sw	t1,62(s0)
    80003518:	03e42383          	lw	t2,62(s0)
    8000351c:	00730463          	beq	t1,t2,80003524 <userstart+0xb30>
    80003520:	14c0106f          	j	8000466c <fail>
    80003524:	05000193          	li	gp,80
    80003528:	43424337          	lui	t1,0x43424
    8000352c:	1403031b          	addiw	t1,t1,320
    80003530:	02642fa3          	sw	t1,63(s0)
    80003534:	03f42383          	lw	t2,63(s0)
    80003538:	00730463          	beq	t1,t2,80003540 <userstart+0xb4c>
    8000353c:	1300106f          	j	8000466c <fail>
    80003540:	05100193          	li	gp,81
    80003544:	47464337          	lui	t1,0x47464
    80003548:	5443031b          	addiw	t1,t1,1348
    8000354c:	02642ea3          	sw	t1,61(s0)
    80003550:	03d46383          	lwu	t2,61(s0)
    80003554:	00730463          	beq	t1,t2,8000355c <userstart+0xb68>
    80003558:	1140106f          	j	8000466c <fail>
    8000355c:	05200193          	li	gp,82
    80003560:	4b4a5337          	lui	t1,0x4b4a5
    80003564:	9483031b          	addiw	t1,t1,-1720
    80003568:	02642f23          	sw	t1,62(s0)
    8000356c:	03e46383          	lwu	t2,62(s0)
    80003570:	00730463          	beq	t1,t2,80003578 <userstart+0xb84>
    80003574:	0f80106f          	j	8000466c <fail>
    80003578:	05300193          	li	gp,83
    8000357c:	4f4e5337          	lui	t1,0x4f4e5
    80003580:	d4c3031b          	addiw	t1,t1,-692
    80003584:	02642fa3          	sw	t1,63(s0)
    80003588:	03f46383          	lwu	t2,63(s0)
    8000358c:	00730463          	beq	t1,t2,80003594 <userstart+0xba0>
    80003590:	0dc0106f          	j	8000466c <fail>
    80003594:	05400193          	li	gp,84
    80003598:	05756337          	lui	t1,0x5756
    8000359c:	5553031b          	addiw	t1,t1,1365
    800035a0:	00c31313          	slli	t1,t1,0xc
    800035a4:	45330313          	addi	t1,t1,1107 # 5756453 <_start-0x7a8a9bad>
    800035a8:	00c31313          	slli	t1,t1,0xc
    800035ac:	52530313          	addi	t1,t1,1317
    800035b0:	00c31313          	slli	t1,t1,0xc
    800035b4:	15030313          	addi	t1,t1,336
    800035b8:	02643ca3          	sd	t1,57(s0)
    800035bc:	03943383          	ld	t2,57(s0)
    800035c0:	00730463          	beq	t1,t2,800035c8 <userstart+0xbd4>
    800035c4:	0a80106f          	j	8000466c <fail>
    800035c8:	05500193          	li	gp,85
    800035cc:	017d8337          	lui	t1,0x17d8
    800035d0:	9753031b          	addiw	t1,t1,-1675
    800035d4:	00c31313          	slli	t1,t1,0xc
    800035d8:	71730313          	addi	t1,t1,1815 # 17d8717 <_start-0x7e8278e9>
    800035dc:	00d31313          	slli	t1,t1,0xd
    800035e0:	ad330313          	addi	t1,t1,-1325
    800035e4:	00d31313          	slli	t1,t1,0xd
    800035e8:	95830313          	addi	t1,t1,-1704
    800035ec:	02643d23          	sd	t1,58(s0)
    800035f0:	03a43383          	ld	t2,58(s0)
    800035f4:	00730463          	beq	t1,t2,800035fc <userstart+0xc08>
    800035f8:	0740106f          	j	8000466c <fail>
    800035fc:	05600193          	li	gp,86
    80003600:	00ced337          	lui	t1,0xced
    80003604:	ccb3031b          	addiw	t1,t1,-821
    80003608:	00d31313          	slli	t1,t1,0xd
    8000360c:	91930313          	addi	t1,t1,-1767 # cec919 <_start-0x7f3136e7>
    80003610:	00d31313          	slli	t1,t1,0xd
    80003614:	b1330313          	addi	t1,t1,-1261
    80003618:	00d31313          	slli	t1,t1,0xd
    8000361c:	16030313          	addi	t1,t1,352
    80003620:	02643da3          	sd	t1,59(s0)
    80003624:	03b43383          	ld	t2,59(s0)
    80003628:	00730463          	beq	t1,t2,80003630 <userstart+0xc3c>
    8000362c:	0400106f          	j	8000466c <fail>
    80003630:	05700193          	li	gp,87
    80003634:	06f6e337          	lui	t1,0x6f6e
    80003638:	6d73031b          	addiw	t1,t1,1751
    8000363c:	00c31313          	slli	t1,t1,0xc
    80003640:	c6b30313          	addi	t1,t1,-917 # 6f6dc6b <_start-0x79092395>
    80003644:	00c31313          	slli	t1,t1,0xc
    80003648:	6a730313          	addi	t1,t1,1703
    8000364c:	00c31313          	slli	t1,t1,0xc
    80003650:	96830313          	addi	t1,t1,-1688
    80003654:	02643e23          	sd	t1,60(s0)
    80003658:	03c43383          	ld	t2,60(s0)
    8000365c:	00730463          	beq	t1,t2,80003664 <userstart+0xc70>
    80003660:	00c0106f          	j	8000466c <fail>
    80003664:	05800193          	li	gp,88
    80003668:	07776337          	lui	t1,0x7776
    8000366c:	7573031b          	addiw	t1,t1,1879
    80003670:	00c31313          	slli	t1,t1,0xc
    80003674:	47330313          	addi	t1,t1,1139 # 7776473 <_start-0x78889b8d>
    80003678:	00c31313          	slli	t1,t1,0xc
    8000367c:	72730313          	addi	t1,t1,1831
    80003680:	00c31313          	slli	t1,t1,0xc
    80003684:	17030313          	addi	t1,t1,368
    80003688:	02643ea3          	sd	t1,61(s0)
    8000368c:	03d43383          	ld	t2,61(s0)
    80003690:	7c731ee3          	bne	t1,t2,8000466c <fail>
    80003694:	05900193          	li	gp,89
    80003698:	00ff0337          	lui	t1,0xff0
    8000369c:	cfb3031b          	addiw	t1,t1,-773
    800036a0:	00c31313          	slli	t1,t1,0xc
    800036a4:	f8f30313          	addi	t1,t1,-113 # feff8f <_start-0x7f010071>
    800036a8:	00c31313          	slli	t1,t1,0xc
    800036ac:	6f530313          	addi	t1,t1,1781
    800036b0:	00f31313          	slli	t1,t1,0xf
    800036b4:	97830313          	addi	t1,t1,-1672
    800036b8:	02643f23          	sd	t1,62(s0)
    800036bc:	03e43383          	ld	t2,62(s0)
    800036c0:	7a7316e3          	bne	t1,t2,8000466c <fail>
    800036c4:	05a00193          	li	gp,90
    800036c8:	fff0f337          	lui	t1,0xfff0f
    800036cc:	0d13031b          	addiw	t1,t1,209
    800036d0:	00c31313          	slli	t1,t1,0xc
    800036d4:	b0930313          	addi	t1,t1,-1271 # fffffffffff0eb09 <freelist_head+0xffffffff7ff03b01>
    800036d8:	01031313          	slli	t1,t1,0x10
    800036dc:	70530313          	addi	t1,t1,1797
    800036e0:	00f31313          	slli	t1,t1,0xf
    800036e4:	18030313          	addi	t1,t1,384
    800036e8:	02643fa3          	sd	t1,63(s0)
    800036ec:	03f43383          	ld	t2,63(s0)
    800036f0:	76731ee3          	bne	t1,t2,8000466c <fail>
    800036f4:	05b00193          	li	gp,91
    800036f8:	0000a337          	lui	t1,0xa
    800036fc:	9983031b          	addiw	t1,t1,-1640
    80003700:	f9800393          	li	t2,-104
    80003704:	006410a3          	sh	t1,1(s0)
    80003708:	00140e03          	lb	t3,1(s0)
    8000370c:	77c390e3          	bne	t2,t3,8000466c <fail>
    80003710:	05c00193          	li	gp,92
    80003714:	0000a337          	lui	t1,0xa
    80003718:	b9a3031b          	addiw	t1,t1,-1126
    8000371c:	f9b00393          	li	t2,-101
    80003720:	006410a3          	sh	t1,1(s0)
    80003724:	00240e03          	lb	t3,2(s0)
    80003728:	75c392e3          	bne	t2,t3,8000466c <fail>
    8000372c:	05d00193          	li	gp,93
    80003730:	0000a337          	lui	t1,0xa
    80003734:	d9c3031b          	addiw	t1,t1,-612
    80003738:	09c00393          	li	t2,156
    8000373c:	006410a3          	sh	t1,1(s0)
    80003740:	00144e03          	lbu	t3,1(s0)
    80003744:	73c394e3          	bne	t2,t3,8000466c <fail>
    80003748:	05e00193          	li	gp,94
    8000374c:	0000a337          	lui	t1,0xa
    80003750:	f9e3031b          	addiw	t1,t1,-98
    80003754:	09f00393          	li	t2,159
    80003758:	006410a3          	sh	t1,1(s0)
    8000375c:	00244e03          	lbu	t3,2(s0)
    80003760:	71c396e3          	bne	t2,t3,8000466c <fail>
    80003764:	05f00193          	li	gp,95
    80003768:	00052337          	lui	t1,0x52
    8000376c:	d153031b          	addiw	t1,t1,-747
    80003770:	00d31313          	slli	t1,t1,0xd
    80003774:	1a030313          	addi	t1,t1,416 # 521a0 <_start-0x7ffade60>
    80003778:	fa000393          	li	t2,-96
    8000377c:	006420a3          	sw	t1,1(s0)
    80003780:	00140e03          	lb	t3,1(s0)
    80003784:	6fc394e3          	bne	t2,t3,8000466c <fail>
    80003788:	06000193          	li	gp,96
    8000378c:	00054337          	lui	t1,0x54
    80003790:	d353031b          	addiw	t1,t1,-715
    80003794:	00d31313          	slli	t1,t1,0xd
    80003798:	5a430313          	addi	t1,t1,1444 # 545a4 <_start-0x7ffaba5c>
    8000379c:	0a500393          	li	t2,165
    800037a0:	00642123          	sw	t1,2(s0)
    800037a4:	00344e03          	lbu	t3,3(s0)
    800037a8:	6dc392e3          	bne	t2,t3,8000466c <fail>
    800037ac:	06100193          	li	gp,97
    800037b0:	000ac337          	lui	t1,0xac
    800037b4:	aab3031b          	addiw	t1,t1,-1365
    800037b8:	00c31313          	slli	t1,t1,0xc
    800037bc:	9a830313          	addi	t1,t1,-1624 # ab9a8 <_start-0x7ff54658>
    800037c0:	ffffb3b7          	lui	t2,0xffffb
    800037c4:	aa93839b          	addiw	t2,t2,-1367
    800037c8:	006421a3          	sw	t1,3(s0)
    800037cc:	00441e03          	lh	t3,4(s0)
    800037d0:	69c39ee3          	bne	t2,t3,8000466c <fail>
    800037d4:	06200193          	li	gp,98
    800037d8:	000b0337          	lui	t1,0xb0
    800037dc:	aeb3031b          	addiw	t1,t1,-1301
    800037e0:	00c31313          	slli	t1,t1,0xc
    800037e4:	dac30313          	addi	t1,t1,-596 # afdac <_start-0x7ff50254>
    800037e8:	0000b3b7          	lui	t2,0xb
    800037ec:	fae3839b          	addiw	t2,t2,-82
    800037f0:	006421a3          	sw	t1,3(s0)
    800037f4:	00545e03          	lhu	t3,5(s0)
    800037f8:	67c39ae3          	bne	t2,t3,8000466c <fail>
    800037fc:	06300193          	li	gp,99
    80003800:	fedee337          	lui	t1,0xfedee
    80003804:	ad73031b          	addiw	t1,t1,-1321
    80003808:	00c31313          	slli	t1,t1,0xc
    8000380c:	d2d30313          	addi	t1,t1,-723 # fffffffffededd2d <freelist_head+0xffffffff7ede2d25>
    80003810:	00e31313          	slli	t1,t1,0xe
    80003814:	b2b30313          	addi	t1,t1,-1237
    80003818:	00c31313          	slli	t1,t1,0xc
    8000381c:	1b030313          	addi	t1,t1,432
    80003820:	fb600393          	li	t2,-74
    80003824:	006430a3          	sd	t1,1(s0)
    80003828:	00740e03          	lb	t3,7(s0)
    8000382c:	65c390e3          	bne	t2,t3,8000466c <fail>
    80003830:	06400193          	li	gp,100
    80003834:	feff0337          	lui	t1,0xfeff0
    80003838:	af73031b          	addiw	t1,t1,-1289
    8000383c:	00c31313          	slli	t1,t1,0xc
    80003840:	f2f30313          	addi	t1,t1,-209 # fffffffffefeff2f <freelist_head+0xffffffff7efe4f27>
    80003844:	00c31313          	slli	t1,t1,0xc
    80003848:	eeb30313          	addi	t1,t1,-277
    8000384c:	00e31313          	slli	t1,t1,0xe
    80003850:	9b830313          	addi	t1,t1,-1608
    80003854:	0b900393          	li	t2,185
    80003858:	00643123          	sd	t1,2(s0)
    8000385c:	00344e03          	lbu	t3,3(s0)
    80003860:	61c396e3          	bne	t2,t3,8000466c <fail>
    80003864:	06500193          	li	gp,101
    80003868:	ff1f2337          	lui	t1,0xff1f2
    8000386c:	b173031b          	addiw	t1,t1,-1257
    80003870:	00c31313          	slli	t1,t1,0xc
    80003874:	13130313          	addi	t1,t1,305 # ffffffffff1f2131 <freelist_head+0xffffffff7f1e7129>
    80003878:	00c31313          	slli	t1,t1,0xc
    8000387c:	f0b30313          	addi	t1,t1,-245
    80003880:	00e31313          	slli	t1,t1,0xe
    80003884:	1c030313          	addi	t1,t1,448
    80003888:	ffffc3b7          	lui	t2,0xffffc
    8000388c:	7c63839b          	addiw	t2,t2,1990
    80003890:	006431a3          	sd	t1,3(s0)
    80003894:	00941e03          	lh	t3,9(s0)
    80003898:	5dc39ae3          	bne	t2,t3,8000466c <fail>
    8000389c:	06600193          	li	gp,102
    800038a0:	ff3f4337          	lui	t1,0xff3f4
    800038a4:	b373031b          	addiw	t1,t1,-1225
    800038a8:	00c31313          	slli	t1,t1,0xc
    800038ac:	33330313          	addi	t1,t1,819 # ffffffffff3f4333 <freelist_head+0xffffffff7f3e932b>
    800038b0:	00e31313          	slli	t1,t1,0xe
    800038b4:	cad30313          	addi	t1,t1,-851
    800038b8:	00c31313          	slli	t1,t1,0xc
    800038bc:	9c830313          	addi	t1,t1,-1592
    800038c0:	0000d3b7          	lui	t2,0xd
    800038c4:	ac93839b          	addiw	t2,t2,-1335
    800038c8:	00643223          	sd	t1,4(s0)
    800038cc:	00545e03          	lhu	t3,5(s0)
    800038d0:	59c39ee3          	bne	t2,t3,8000466c <fail>
    800038d4:	06700193          	li	gp,103
    800038d8:	ff5f6337          	lui	t1,0xff5f6
    800038dc:	b573031b          	addiw	t1,t1,-1193
    800038e0:	00c31313          	slli	t1,t1,0xc
    800038e4:	53530313          	addi	t1,t1,1333 # ffffffffff5f6535 <freelist_head+0xffffffff7f5eb52d>
    800038e8:	00e31313          	slli	t1,t1,0xe
    800038ec:	d2d30313          	addi	t1,t1,-723
    800038f0:	00c31313          	slli	t1,t1,0xc
    800038f4:	1d030313          	addi	t1,t1,464
    800038f8:	d7d6d3b7          	lui	t2,0xd7d6d
    800038fc:	5d43839b          	addiw	t2,t2,1492
    80003900:	006432a3          	sd	t1,5(s0)
    80003904:	00942e03          	lw	t3,9(s0)
    80003908:	57c392e3          	bne	t2,t3,8000466c <fail>
    8000390c:	06800193          	li	gp,104
    80003910:	ff7f8337          	lui	t1,0xff7f8
    80003914:	b773031b          	addiw	t1,t1,-1161
    80003918:	00c31313          	slli	t1,t1,0xc
    8000391c:	73730313          	addi	t1,t1,1847 # ffffffffff7f8737 <freelist_head+0xffffffff7f7ed72f>
    80003920:	00d31313          	slli	t1,t1,0xd
    80003924:	ed730313          	addi	t1,t1,-297
    80003928:	00d31313          	slli	t1,t1,0xd
    8000392c:	9d830313          	addi	t1,t1,-1576
    80003930:	dddce3b7          	lui	t2,0xdddce
    80003934:	bda3839b          	addiw	t2,t2,-1062
    80003938:	00643323          	sd	t1,6(s0)
    8000393c:	00842e03          	lw	t3,8(s0)
    80003940:	53c396e3          	bne	t2,t3,8000466c <fail>
    80003944:	06900193          	li	gp,105
    80003948:	fff3f337          	lui	t1,0xfff3f
    8000394c:	3733031b          	addiw	t1,t1,883
    80003950:	00f31313          	slli	t1,t1,0xf
    80003954:	93930313          	addi	t1,t1,-1735 # fffffffffff3e939 <freelist_head+0xffffffff7ff33931>
    80003958:	00d31313          	slli	t1,t1,0xd
    8000395c:	f1730313          	addi	t1,t1,-233
    80003960:	00d31313          	slli	t1,t1,0xd
    80003964:	1e030313          	addi	t1,t1,480
    80003968:	000723b7          	lui	t2,0x72
    8000396c:	71f3839b          	addiw	t2,t2,1823
    80003970:	00d39393          	slli	t2,t2,0xd
    80003974:	2e138393          	addi	t2,t2,737 # 722e1 <_start-0x7ff8dd1f>
    80003978:	006433a3          	sd	t1,7(s0)
    8000397c:	00846e03          	lwu	t3,8(s0)
    80003980:	4fc396e3          	bne	t2,t3,8000466c <fail>
    80003984:	06a00193          	li	gp,106
    80003988:	0000f337          	lui	t1,0xf
    8000398c:	9e83031b          	addiw	t1,t1,-1560
    80003990:	fe800393          	li	t2,-24
    80003994:	00641fa3          	sh	t1,31(s0)
    80003998:	01f40e03          	lb	t3,31(s0)
    8000399c:	4dc398e3          	bne	t2,t3,8000466c <fail>
    800039a0:	06b00193          	li	gp,107
    800039a4:	0000f337          	lui	t1,0xf
    800039a8:	bea3031b          	addiw	t1,t1,-1046
    800039ac:	feb00393          	li	t2,-21
    800039b0:	00641fa3          	sh	t1,31(s0)
    800039b4:	02040e03          	lb	t3,32(s0)
    800039b8:	4bc39ae3          	bne	t2,t3,8000466c <fail>
    800039bc:	06c00193          	li	gp,108
    800039c0:	0000f337          	lui	t1,0xf
    800039c4:	dec3031b          	addiw	t1,t1,-532
    800039c8:	0ec00393          	li	t2,236
    800039cc:	00641fa3          	sh	t1,31(s0)
    800039d0:	01f44e03          	lbu	t3,31(s0)
    800039d4:	49c39ce3          	bne	t2,t3,8000466c <fail>
    800039d8:	06d00193          	li	gp,109
    800039dc:	0000f337          	lui	t1,0xf
    800039e0:	fee3031b          	addiw	t1,t1,-18
    800039e4:	0ef00393          	li	t2,239
    800039e8:	00641fa3          	sh	t1,31(s0)
    800039ec:	02044e03          	lbu	t3,32(s0)
    800039f0:	47c39ee3          	bne	t2,t3,8000466c <fail>
    800039f4:	06e00193          	li	gp,110
    800039f8:	000f4337          	lui	t1,0xf4
    800039fc:	f2f3031b          	addiw	t1,t1,-209
    80003a00:	00c31313          	slli	t1,t1,0xc
    80003a04:	1f030313          	addi	t1,t1,496 # f41f0 <_start-0x7ff0be10>
    80003a08:	ff000393          	li	t2,-16
    80003a0c:	00642ea3          	sw	t1,29(s0)
    80003a10:	01d40e03          	lb	t3,29(s0)
    80003a14:	45c39ce3          	bne	t2,t3,8000466c <fail>
    80003a18:	06f00193          	li	gp,111
    80003a1c:	000f8337          	lui	t1,0xf8
    80003a20:	f6f3031b          	addiw	t1,t1,-145
    80003a24:	00c31313          	slli	t1,t1,0xc
    80003a28:	5f430313          	addi	t1,t1,1524 # f85f4 <_start-0x7ff07a0c>
    80003a2c:	0f600393          	li	t2,246
    80003a30:	00642f23          	sw	t1,30(s0)
    80003a34:	02044e03          	lbu	t3,32(s0)
    80003a38:	43c39ae3          	bne	t2,t3,8000466c <fail>
    80003a3c:	07000193          	li	gp,112
    80003a40:	00010337          	lui	t1,0x10
    80003a44:	bfb3031b          	addiw	t1,t1,-1029
    80003a48:	01031313          	slli	t1,t1,0x10
    80003a4c:	9f830313          	addi	t1,t1,-1544 # f9f8 <_start-0x7fff0608>
    80003a50:	bfa00393          	li	t2,-1030
    80003a54:	00642ea3          	sw	t1,29(s0)
    80003a58:	01f41e03          	lh	t3,31(s0)
    80003a5c:	41c398e3          	bne	t2,t3,8000466c <fail>
    80003a60:	07100193          	li	gp,113
    80003a64:	00010337          	lui	t1,0x10
    80003a68:	fff3031b          	addiw	t1,t1,-1
    80003a6c:	01031313          	slli	t1,t1,0x10
    80003a70:	dfc30313          	addi	t1,t1,-516 # fdfc <_start-0x7fff0204>
    80003a74:	000103b7          	lui	t2,0x10
    80003a78:	dfc3839b          	addiw	t2,t2,-516
    80003a7c:	00642fa3          	sw	t1,31(s0)
    80003a80:	01f45e03          	lhu	t3,31(s0)
    80003a84:	3fc394e3          	bne	t2,t3,8000466c <fail>
    80003a88:	07200193          	li	gp,114
    80003a8c:	01c18337          	lui	t1,0x1c18
    80003a90:	1413031b          	addiw	t1,t1,321
    80003a94:	01131313          	slli	t1,t1,0x11
    80003a98:	18130313          	addi	t1,t1,385 # 1c18181 <_start-0x7e3e7e7f>
    80003a9c:	01131313          	slli	t1,t1,0x11
    80003aa0:	10030313          	addi	t1,t1,256
    80003aa4:	00700393          	li	t2,7
    80003aa8:	00643ca3          	sd	t1,25(s0)
    80003aac:	02040e03          	lb	t3,32(s0)
    80003ab0:	3bc39ee3          	bne	t2,t3,8000466c <fail>
    80003ab4:	07300193          	li	gp,115
    80003ab8:	00f0e337          	lui	t1,0xf0e
    80003abc:	0d13031b          	addiw	t1,t1,209
    80003ac0:	00c31313          	slli	t1,t1,0xc
    80003ac4:	c0b30313          	addi	t1,t1,-1013 # f0dc0b <_start-0x7f0f23f5>
    80003ac8:	00c31313          	slli	t1,t1,0xc
    80003acc:	0a130313          	addi	t1,t1,161
    80003ad0:	00c31313          	slli	t1,t1,0xc
    80003ad4:	90830313          	addi	t1,t1,-1784
    80003ad8:	00f00393          	li	t2,15
    80003adc:	00643d23          	sd	t1,26(s0)
    80003ae0:	02144e03          	lbu	t3,33(s0)
    80003ae4:	39c394e3          	bne	t2,t3,8000466c <fail>
    80003ae8:	07400193          	li	gp,116
    80003aec:	01716337          	lui	t1,0x1716
    80003af0:	1513031b          	addiw	t1,t1,337
    80003af4:	00c31313          	slli	t1,t1,0xc
    80003af8:	41330313          	addi	t1,t1,1043 # 1716413 <_start-0x7e8e9bed>
    80003afc:	00c31313          	slli	t1,t1,0xc
    80003b00:	12130313          	addi	t1,t1,289
    80003b04:	00c31313          	slli	t1,t1,0xc
    80003b08:	11030313          	addi	t1,t1,272
    80003b0c:	000013b7          	lui	t2,0x1
    80003b10:	5143839b          	addiw	t2,t2,1300
    80003b14:	00643da3          	sd	t1,27(s0)
    80003b18:	01f41e03          	lh	t3,31(s0)
    80003b1c:	35c398e3          	bne	t2,t3,8000466c <fail>
    80003b20:	07500193          	li	gp,117
    80003b24:	001f2337          	lui	t1,0x1f2
    80003b28:	e1d3031b          	addiw	t1,t1,-483
    80003b2c:	00e31313          	slli	t1,t1,0xe
    80003b30:	70730313          	addi	t1,t1,1799 # 1f2707 <_start-0x7fe0d8f9>
    80003b34:	00d31313          	slli	t1,t1,0xd
    80003b38:	8d130313          	addi	t1,t1,-1839
    80003b3c:	00d31313          	slli	t1,t1,0xd
    80003b40:	91830313          	addi	t1,t1,-1768
    80003b44:	000023b7          	lui	t2,0x2
    80003b48:	c1b3839b          	addiw	t2,t2,-997
    80003b4c:	00643e23          	sd	t1,28(s0)
    80003b50:	01f45e03          	lhu	t3,31(s0)
    80003b54:	31c39ce3          	bne	t2,t3,8000466c <fail>
    80003b58:	07600193          	li	gp,118
    80003b5c:	009ca337          	lui	t1,0x9ca
    80003b60:	8953031b          	addiw	t1,t1,-1899
    80003b64:	00c31313          	slli	t1,t1,0xc
    80003b68:	90930313          	addi	t1,t1,-1783 # 9c9909 <_start-0x7f6366f7>
    80003b6c:	00d31313          	slli	t1,t1,0xd
    80003b70:	91130313          	addi	t1,t1,-1775
    80003b74:	00d31313          	slli	t1,t1,0xd
    80003b78:	12030313          	addi	t1,t1,288
    80003b7c:	232223b7          	lui	t2,0x23222
    80003b80:	1203839b          	addiw	t2,t2,288
    80003b84:	00643ea3          	sd	t1,29(s0)
    80003b88:	01d42e03          	lw	t3,29(s0)
    80003b8c:	2fc390e3          	bne	t2,t3,8000466c <fail>
    80003b90:	07700193          	li	gp,119
    80003b94:	02f2e337          	lui	t1,0x2f2e
    80003b98:	2d33031b          	addiw	t1,t1,723
    80003b9c:	00c31313          	slli	t1,t1,0xc
    80003ba0:	c2b30313          	addi	t1,t1,-981 # 2f2dc2b <_start-0x7d0d23d5>
    80003ba4:	00c31313          	slli	t1,t1,0xc
    80003ba8:	2a330313          	addi	t1,t1,675
    80003bac:	00c31313          	slli	t1,t1,0xc
    80003bb0:	92830313          	addi	t1,t1,-1752
    80003bb4:	2b2a33b7          	lui	t2,0x2b2a3
    80003bb8:	9283839b          	addiw	t2,t2,-1752
    80003bbc:	00643f23          	sd	t1,30(s0)
    80003bc0:	01e42e03          	lw	t3,30(s0)
    80003bc4:	2bc394e3          	bne	t2,t3,8000466c <fail>
    80003bc8:	07800193          	li	gp,120
    80003bcc:	03736337          	lui	t1,0x3736
    80003bd0:	3533031b          	addiw	t1,t1,851
    80003bd4:	00c31313          	slli	t1,t1,0xc
    80003bd8:	43330313          	addi	t1,t1,1075 # 3736433 <_start-0x7c8c9bcd>
    80003bdc:	00c31313          	slli	t1,t1,0xc
    80003be0:	32330313          	addi	t1,t1,803
    80003be4:	00c31313          	slli	t1,t1,0xc
    80003be8:	13030313          	addi	t1,t1,304
    80003bec:	333233b7          	lui	t2,0x33323
    80003bf0:	1303839b          	addiw	t2,t2,304
    80003bf4:	00643fa3          	sd	t1,31(s0)
    80003bf8:	01f46e03          	lwu	t3,31(s0)
    80003bfc:	27c398e3          	bne	t2,t3,8000466c <fail>
    80003c00:	07900193          	li	gp,121
    80003c04:	00005337          	lui	t1,0x5
    80003c08:	9483031b          	addiw	t1,t1,-1720
    80003c0c:	04800393          	li	t2,72
    80003c10:	02641fa3          	sh	t1,63(s0)
    80003c14:	03f40e03          	lb	t3,63(s0)
    80003c18:	25c39ae3          	bne	t2,t3,8000466c <fail>
    80003c1c:	07a00193          	li	gp,122
    80003c20:	00005337          	lui	t1,0x5
    80003c24:	b4a3031b          	addiw	t1,t1,-1206
    80003c28:	04b00393          	li	t2,75
    80003c2c:	02641fa3          	sh	t1,63(s0)
    80003c30:	04040e03          	lb	t3,64(s0)
    80003c34:	23c39ce3          	bne	t2,t3,8000466c <fail>
    80003c38:	07b00193          	li	gp,123
    80003c3c:	00005337          	lui	t1,0x5
    80003c40:	d4c3031b          	addiw	t1,t1,-692
    80003c44:	04c00393          	li	t2,76
    80003c48:	02641fa3          	sh	t1,63(s0)
    80003c4c:	03f44e03          	lbu	t3,63(s0)
    80003c50:	21c39ee3          	bne	t2,t3,8000466c <fail>
    80003c54:	07c00193          	li	gp,124
    80003c58:	00005337          	lui	t1,0x5
    80003c5c:	f4e3031b          	addiw	t1,t1,-178
    80003c60:	04f00393          	li	t2,79
    80003c64:	02641fa3          	sh	t1,63(s0)
    80003c68:	04044e03          	lbu	t3,64(s0)
    80003c6c:	21c390e3          	bne	t2,t3,8000466c <fail>
    80003c70:	07d00193          	li	gp,125
    80003c74:	53525337          	lui	t1,0x53525
    80003c78:	1503031b          	addiw	t1,t1,336
    80003c7c:	05000393          	li	t2,80
    80003c80:	02642ea3          	sw	t1,61(s0)
    80003c84:	03d40e03          	lb	t3,61(s0)
    80003c88:	1fc392e3          	bne	t2,t3,8000466c <fail>
    80003c8c:	07e00193          	li	gp,126
    80003c90:	57565337          	lui	t1,0x57565
    80003c94:	5543031b          	addiw	t1,t1,1364
    80003c98:	05600393          	li	t2,86
    80003c9c:	02642f23          	sw	t1,62(s0)
    80003ca0:	04044e03          	lbu	t3,64(s0)
    80003ca4:	1dc394e3          	bne	t2,t3,8000466c <fail>
    80003ca8:	07f00193          	li	gp,127
    80003cac:	5b5a6337          	lui	t1,0x5b5a6
    80003cb0:	9583031b          	addiw	t1,t1,-1704
    80003cb4:	000063b7          	lui	t2,0x6
    80003cb8:	b5a3839b          	addiw	t2,t2,-1190
    80003cbc:	02642ea3          	sw	t1,61(s0)
    80003cc0:	03f41e03          	lh	t3,63(s0)
    80003cc4:	1bc394e3          	bne	t2,t3,8000466c <fail>
    80003cc8:	08000193          	li	gp,128
    80003ccc:	5f5e6337          	lui	t1,0x5f5e6
    80003cd0:	d5c3031b          	addiw	t1,t1,-676
    80003cd4:	000063b7          	lui	t2,0x6
    80003cd8:	d5c3839b          	addiw	t2,t2,-676
    80003cdc:	02642fa3          	sw	t1,63(s0)
    80003ce0:	03f45e03          	lhu	t3,63(s0)
    80003ce4:	19c394e3          	bne	t2,t3,8000466c <fail>
    80003ce8:	08100193          	li	gp,129
    80003cec:	00ced337          	lui	t1,0xced
    80003cf0:	ccb3031b          	addiw	t1,t1,-821
    80003cf4:	00d31313          	slli	t1,t1,0xd
    80003cf8:	91930313          	addi	t1,t1,-1767 # cec919 <_start-0x7f3136e7>
    80003cfc:	00d31313          	slli	t1,t1,0xd
    80003d00:	b1330313          	addi	t1,t1,-1261
    80003d04:	00d31313          	slli	t1,t1,0xd
    80003d08:	16030313          	addi	t1,t1,352
    80003d0c:	06700393          	li	t2,103
    80003d10:	02643ca3          	sd	t1,57(s0)
    80003d14:	04040e03          	lb	t3,64(s0)
    80003d18:	15c39ae3          	bne	t2,t3,8000466c <fail>
    80003d1c:	08200193          	li	gp,130
    80003d20:	06f6e337          	lui	t1,0x6f6e
    80003d24:	6d73031b          	addiw	t1,t1,1751
    80003d28:	00c31313          	slli	t1,t1,0xc
    80003d2c:	c6b30313          	addi	t1,t1,-917 # 6f6dc6b <_start-0x79092395>
    80003d30:	00c31313          	slli	t1,t1,0xc
    80003d34:	6a730313          	addi	t1,t1,1703
    80003d38:	00c31313          	slli	t1,t1,0xc
    80003d3c:	96830313          	addi	t1,t1,-1688
    80003d40:	06f00393          	li	t2,111
    80003d44:	02643d23          	sd	t1,58(s0)
    80003d48:	04144e03          	lbu	t3,65(s0)
    80003d4c:	13c390e3          	bne	t2,t3,8000466c <fail>
    80003d50:	08300193          	li	gp,131
    80003d54:	07776337          	lui	t1,0x7776
    80003d58:	7573031b          	addiw	t1,t1,1879
    80003d5c:	00c31313          	slli	t1,t1,0xc
    80003d60:	47330313          	addi	t1,t1,1139 # 7776473 <_start-0x78889b8d>
    80003d64:	00c31313          	slli	t1,t1,0xc
    80003d68:	72730313          	addi	t1,t1,1831
    80003d6c:	00c31313          	slli	t1,t1,0xc
    80003d70:	17030313          	addi	t1,t1,368
    80003d74:	000073b7          	lui	t2,0x7
    80003d78:	5743839b          	addiw	t2,t2,1396
    80003d7c:	02643da3          	sd	t1,59(s0)
    80003d80:	03f41e03          	lh	t3,63(s0)
    80003d84:	0fc394e3          	bne	t2,t3,8000466c <fail>
    80003d88:	08400193          	li	gp,132
    80003d8c:	00ff0337          	lui	t1,0xff0
    80003d90:	cfb3031b          	addiw	t1,t1,-773
    80003d94:	00c31313          	slli	t1,t1,0xc
    80003d98:	f8f30313          	addi	t1,t1,-113 # feff8f <_start-0x7f010071>
    80003d9c:	00c31313          	slli	t1,t1,0xc
    80003da0:	6f530313          	addi	t1,t1,1781
    80003da4:	00f31313          	slli	t1,t1,0xf
    80003da8:	97830313          	addi	t1,t1,-1672
    80003dac:	000083b7          	lui	t2,0x8
    80003db0:	c7b3839b          	addiw	t2,t2,-901
    80003db4:	02643e23          	sd	t1,60(s0)
    80003db8:	03f45e03          	lhu	t3,63(s0)
    80003dbc:	0bc398e3          	bne	t2,t3,8000466c <fail>
    80003dc0:	08500193          	li	gp,133
    80003dc4:	fff0f337          	lui	t1,0xfff0f
    80003dc8:	0d13031b          	addiw	t1,t1,209
    80003dcc:	00c31313          	slli	t1,t1,0xc
    80003dd0:	b0930313          	addi	t1,t1,-1271 # fffffffffff0eb09 <freelist_head+0xffffffff7ff03b01>
    80003dd4:	01031313          	slli	t1,t1,0x10
    80003dd8:	70530313          	addi	t1,t1,1797
    80003ddc:	00f31313          	slli	t1,t1,0xf
    80003de0:	18030313          	addi	t1,t1,384
    80003de4:	838283b7          	lui	t2,0x83828
    80003de8:	1803839b          	addiw	t2,t2,384
    80003dec:	02643ea3          	sd	t1,61(s0)
    80003df0:	03d42e03          	lw	t3,61(s0)
    80003df4:	07c39ce3          	bne	t2,t3,8000466c <fail>
    80003df8:	08600193          	li	gp,134
    80003dfc:	ff1f2337          	lui	t1,0xff1f2
    80003e00:	d1b3031b          	addiw	t1,t1,-741
    80003e04:	00d31313          	slli	t1,t1,0xd
    80003e08:	32330313          	addi	t1,t1,803 # ffffffffff1f2323 <freelist_head+0xffffffff7f1e731b>
    80003e0c:	00e31313          	slli	t1,t1,0xe
    80003e10:	8a930313          	addi	t1,t1,-1879
    80003e14:	00c31313          	slli	t1,t1,0xc
    80003e18:	98830313          	addi	t1,t1,-1656
    80003e1c:	8b8a93b7          	lui	t2,0x8b8a9
    80003e20:	9883839b          	addiw	t2,t2,-1656
    80003e24:	02643f23          	sd	t1,62(s0)
    80003e28:	03e42e03          	lw	t3,62(s0)
    80003e2c:	05c390e3          	bne	t2,t3,8000466c <fail>
    80003e30:	08700193          	li	gp,135
    80003e34:	ff2f3337          	lui	t1,0xff2f3
    80003e38:	d2b3031b          	addiw	t1,t1,-725
    80003e3c:	00d31313          	slli	t1,t1,0xd
    80003e40:	52530313          	addi	t1,t1,1317 # ffffffffff2f3525 <freelist_head+0xffffffff7f2e851d>
    80003e44:	00e31313          	slli	t1,t1,0xe
    80003e48:	92930313          	addi	t1,t1,-1751
    80003e4c:	00c31313          	slli	t1,t1,0xc
    80003e50:	19030313          	addi	t1,t1,400
    80003e54:	000943b7          	lui	t2,0x94
    80003e58:	9293839b          	addiw	t2,t2,-1751
    80003e5c:	00c39393          	slli	t2,t2,0xc
    80003e60:	19038393          	addi	t2,t2,400 # 94190 <_start-0x7ff6be70>
    80003e64:	02643fa3          	sd	t1,63(s0)
    80003e68:	03f46e03          	lwu	t3,63(s0)
    80003e6c:	01c390e3          	bne	t2,t3,8000466c <fail>
    80003e70:	08800193          	li	gp,136
    80003e74:	09800313          	li	t1,152
    80003e78:	ffffc3b7          	lui	t2,0xffffc
    80003e7c:	8983839b          	addiw	t2,t2,-1896
    80003e80:	006400a3          	sb	t1,1(s0)
    80003e84:	00141e03          	lh	t3,1(s0)
    80003e88:	7fc39263          	bne	t2,t3,8000466c <fail>
    80003e8c:	08900193          	li	gp,137
    80003e90:	09900313          	li	t1,153
    80003e94:	0000a3b7          	lui	t2,0xa
    80003e98:	9983839b          	addiw	t2,t2,-1640
    80003e9c:	00640123          	sb	t1,2(s0)
    80003ea0:	00145e03          	lhu	t3,1(s0)
    80003ea4:	7dc39463          	bne	t2,t3,8000466c <fail>
    80003ea8:	08a00193          	li	gp,138
    80003eac:	0000a337          	lui	t1,0xa
    80003eb0:	b9a3031b          	addiw	t1,t1,-1126
    80003eb4:	c8c0a3b7          	lui	t2,0xc8c0a
    80003eb8:	b9a3839b          	addiw	t2,t2,-1126
    80003ebc:	006410a3          	sh	t1,1(s0)
    80003ec0:	00142e03          	lw	t3,1(s0)
    80003ec4:	7bc39463          	bne	t2,t3,8000466c <fail>
    80003ec8:	08b00193          	li	gp,139
    80003ecc:	0000a337          	lui	t1,0xa
    80003ed0:	d9c3031b          	addiw	t1,t1,-612
    80003ed4:	d09da3b7          	lui	t2,0xd09da
    80003ed8:	c9b3839b          	addiw	t2,t2,-869
    80003edc:	006411a3          	sh	t1,3(s0)
    80003ee0:	00242e03          	lw	t3,2(s0)
    80003ee4:	79c39463          	bne	t2,t3,8000466c <fail>
    80003ee8:	08c00193          	li	gp,140
    80003eec:	0000a337          	lui	t1,0xa
    80003ef0:	f9e3031b          	addiw	t1,t1,-98
    80003ef4:	9f9ea3b7          	lui	t2,0x9f9ea
    80003ef8:	d9c3839b          	addiw	t2,t2,-612
    80003efc:	006412a3          	sh	t1,5(s0)
    80003f00:	00342e03          	lw	t3,3(s0)
    80003f04:	77c39463          	bne	t2,t3,8000466c <fail>
    80003f08:	08d00193          	li	gp,141
    80003f0c:	0a000313          	li	t1,160
    80003f10:	0004f3b7          	lui	t2,0x4f
    80003f14:	ce53839b          	addiw	t2,t2,-795
    80003f18:	00d39393          	slli	t2,t2,0xd
    80003f1c:	09a38393          	addi	t2,t2,154 # 4f09a <_start-0x7ffb0f66>
    80003f20:	00640123          	sb	t1,2(s0)
    80003f24:	00146e03          	lwu	t3,1(s0)
    80003f28:	75c39263          	bne	t2,t3,8000466c <fail>
    80003f2c:	08e00193          	li	gp,142
    80003f30:	0000a337          	lui	t1,0xa
    80003f34:	2a13031b          	addiw	t1,t1,673
    80003f38:	0004f3b7          	lui	t2,0x4f
    80003f3c:	5153839b          	addiw	t2,t2,1301
    80003f40:	00d39393          	slli	t2,t2,0xd
    80003f44:	1a038393          	addi	t2,t2,416 # 4f1a0 <_start-0x7ffb0e60>
    80003f48:	006411a3          	sh	t1,3(s0)
    80003f4c:	00246e03          	lwu	t3,2(s0)
    80003f50:	71c39e63          	bne	t2,t3,8000466c <fail>
    80003f54:	08f00193          	li	gp,143
    80003f58:	0000a337          	lui	t1,0xa
    80003f5c:	4a33031b          	addiw	t1,t1,1187
    80003f60:	000523b7          	lui	t2,0x52
    80003f64:	51d3839b          	addiw	t2,t2,1309
    80003f68:	00d39393          	slli	t2,t2,0xd
    80003f6c:	2a138393          	addi	t2,t2,673 # 522a1 <_start-0x7ffadd5f>
    80003f70:	006412a3          	sh	t1,5(s0)
    80003f74:	00346e03          	lwu	t3,3(s0)
    80003f78:	6fc39a63          	bne	t2,t3,8000466c <fail>
    80003f7c:	09000193          	li	gp,144
    80003f80:	0a500313          	li	t1,165
    80003f84:	ff0f03b7          	lui	t2,0xff0f0
    80003f88:	5253839b          	addiw	t2,t2,1317
    80003f8c:	00c39393          	slli	t2,t2,0xc
    80003f90:	1d138393          	addi	t2,t2,465 # ffffffffff0f01d1 <freelist_head+0xffffffff7f0e51c9>
    80003f94:	00c39393          	slli	t2,t2,0xc
    80003f98:	50d38393          	addi	t2,t2,1293
    80003f9c:	00d39393          	slli	t2,t2,0xd
    80003fa0:	59a38393          	addi	t2,t2,1434
    80003fa4:	00640123          	sb	t1,2(s0)
    80003fa8:	00143e03          	ld	t3,1(s0)
    80003fac:	6dc39063          	bne	t2,t3,8000466c <fail>
    80003fb0:	09100193          	li	gp,145
    80003fb4:	0000a337          	lui	t1,0xa
    80003fb8:	7a63031b          	addiw	t1,t1,1958
    80003fbc:	ff8aa3b7          	lui	t2,0xff8aa
    80003fc0:	e9b3839b          	addiw	t2,t2,-357
    80003fc4:	00c39393          	slli	t2,t2,0xc
    80003fc8:	92938393          	addi	t2,t2,-1751 # ffffffffff8a9929 <freelist_head+0xffffffff7f89e921>
    80003fcc:	00d39393          	slli	t2,t2,0xd
    80003fd0:	d1538393          	addi	t2,t2,-747
    80003fd4:	00d39393          	slli	t2,t2,0xd
    80003fd8:	1a538393          	addi	t2,t2,421
    80003fdc:	006413a3          	sh	t1,7(s0)
    80003fe0:	00243e03          	ld	t3,2(s0)
    80003fe4:	69c39463          	bne	t2,t3,8000466c <fail>
    80003fe8:	09200193          	li	gp,146
    80003fec:	0000b337          	lui	t1,0xb
    80003ff0:	9a83031b          	addiw	t1,t1,-1624
    80003ff4:	fea6a3b7          	lui	t2,0xfea6a
    80003ff8:	29f3839b          	addiw	t2,t2,671
    80003ffc:	00c39393          	slli	t2,t2,0xc
    80004000:	9a938393          	addi	t2,t2,-1623 # fffffffffea699a9 <freelist_head+0xffffffff7ea5e9a1>
    80004004:	00d39393          	slli	t2,t2,0xd
    80004008:	51d38393          	addi	t2,t2,1309
    8000400c:	00d39393          	slli	t2,t2,0xd
    80004010:	2a138393          	addi	t2,t2,673
    80004014:	006414a3          	sh	t1,9(s0)
    80004018:	00343e03          	ld	t3,3(s0)
    8000401c:	65c39863          	bne	t2,t3,8000466c <fail>
    80004020:	09300193          	li	gp,147
    80004024:	000ae337          	lui	t1,0xae
    80004028:	acb3031b          	addiw	t1,t1,-1333
    8000402c:	00c31313          	slli	t1,t1,0xc
    80004030:	baa30313          	addi	t1,t1,-1110 # adbaa <_start-0x7ff52456>
    80004034:	fe4aa3b7          	lui	t2,0xfe4aa
    80004038:	a8b3839b          	addiw	t2,t2,-1397
    8000403c:	00c39393          	slli	t2,t2,0xc
    80004040:	dad38393          	addi	t2,t2,-595 # fffffffffe4a9dad <freelist_head+0xffffffff7e49eda5>
    80004044:	00c39393          	slli	t2,t2,0xc
    80004048:	abb38393          	addi	t2,t2,-1349
    8000404c:	00c39393          	slli	t2,t2,0xc
    80004050:	aa238393          	addi	t2,t2,-1374
    80004054:	006422a3          	sw	t1,5(s0)
    80004058:	00443e03          	ld	t3,4(s0)
    8000405c:	61c39863          	bne	t2,t3,8000466c <fail>
    80004060:	09400193          	li	gp,148
    80004064:	000b2337          	lui	t1,0xb2
    80004068:	b0b3031b          	addiw	t1,t1,-1269
    8000406c:	00c31313          	slli	t1,t1,0xc
    80004070:	fae30313          	addi	t1,t1,-82 # b1fae <_start-0x7ff4e052>
    80004074:	fff2f3b7          	lui	t2,0xfff2f
    80004078:	2593839b          	addiw	t2,t2,601
    8000407c:	00d39393          	slli	t2,t2,0xd
    80004080:	b0b38393          	addi	t2,t2,-1269 # fffffffffff2eb0b <freelist_head+0xffffffff7ff23b03>
    80004084:	01039393          	slli	t2,t2,0x10
    80004088:	aeb38393          	addi	t2,t2,-1301
    8000408c:	00c39393          	slli	t2,t2,0xc
    80004090:	baa38393          	addi	t2,t2,-1110
    80004094:	006423a3          	sw	t1,7(s0)
    80004098:	00543e03          	ld	t3,5(s0)
    8000409c:	5dc39863          	bne	t2,t3,8000466c <fail>
    800040a0:	09500193          	li	gp,149
    800040a4:	000b6337          	lui	t1,0xb6
    800040a8:	b4b3031b          	addiw	t1,t1,-1205
    800040ac:	00c31313          	slli	t1,t1,0xc
    800040b0:	3b230313          	addi	t1,t1,946 # b63b2 <_start-0x7ff49c4e>
    800040b4:	fe6b63b7          	lui	t2,0xfe6b6
    800040b8:	b4b3839b          	addiw	t2,t2,-1205
    800040bc:	00c39393          	slli	t2,t2,0xc
    800040c0:	3b338393          	addi	t2,t2,947 # fffffffffe6b63b3 <freelist_head+0xffffffff7e6ab3ab>
    800040c4:	00c39393          	slli	t2,t2,0xc
    800040c8:	afb38393          	addi	t2,t2,-1285
    800040cc:	00c39393          	slli	t2,t2,0xc
    800040d0:	eab38393          	addi	t2,t2,-341
    800040d4:	006424a3          	sw	t1,9(s0)
    800040d8:	00643e03          	ld	t3,6(s0)
    800040dc:	59c39863          	bne	t2,t3,8000466c <fail>
    800040e0:	09600193          	li	gp,150
    800040e4:	000ba337          	lui	t1,0xba
    800040e8:	b8b3031b          	addiw	t1,t1,-1141
    800040ec:	00c31313          	slli	t1,t1,0xc
    800040f0:	7b630313          	addi	t1,t1,1974 # ba7b6 <_start-0x7ff4584a>
    800040f4:	fee6e3b7          	lui	t2,0xfee6e
    800040f8:	2df3839b          	addiw	t2,t2,735
    800040fc:	00c39393          	slli	t2,t2,0xc
    80004100:	dad38393          	addi	t2,t2,-595 # fffffffffee6ddad <freelist_head+0xffffffff7ee62da5>
    80004104:	00e39393          	slli	t2,t2,0xe
    80004108:	b2b38393          	addi	t2,t2,-1237
    8000410c:	00c39393          	slli	t2,t2,0xc
    80004110:	fae38393          	addi	t2,t2,-82
    80004114:	006425a3          	sw	t1,11(s0)
    80004118:	00743e03          	ld	t3,7(s0)
    8000411c:	55c39863          	bne	t2,t3,8000466c <fail>
    80004120:	09700193          	li	gp,151
    80004124:	0ba00313          	li	t1,186
    80004128:	000033b7          	lui	t2,0x3
    8000412c:	1ba3839b          	addiw	t2,t2,442
    80004130:	00640fa3          	sb	t1,31(s0)
    80004134:	01f41e03          	lh	t3,31(s0)
    80004138:	53c39a63          	bne	t2,t3,8000466c <fail>
    8000413c:	09800193          	li	gp,152
    80004140:	0bb00313          	li	t1,187
    80004144:	0000c3b7          	lui	t2,0xc
    80004148:	bba3839b          	addiw	t2,t2,-1094
    8000414c:	02640023          	sb	t1,32(s0)
    80004150:	01f45e03          	lhu	t3,31(s0)
    80004154:	51c39c63          	bne	t2,t3,8000466c <fail>
    80004158:	09900193          	li	gp,153
    8000415c:	0000c337          	lui	t1,0xc
    80004160:	dbc3031b          	addiw	t1,t1,-580
    80004164:	32bbc3b7          	lui	t2,0x32bbc
    80004168:	dbc3839b          	addiw	t2,t2,-580
    8000416c:	00641f23          	sh	t1,30(s0)
    80004170:	01e42e03          	lw	t3,30(s0)
    80004174:	4fc39c63          	bne	t2,t3,8000466c <fail>
    80004178:	09a00193          	li	gp,154
    8000417c:	0000c337          	lui	t1,0xc
    80004180:	fbe3031b          	addiw	t1,t1,-66
    80004184:	32bfc3b7          	lui	t2,0x32bfc
    80004188:	ebc3839b          	addiw	t2,t2,-324
    8000418c:	00641fa3          	sh	t1,31(s0)
    80004190:	01e42e03          	lw	t3,30(s0)
    80004194:	4dc39c63          	bne	t2,t3,8000466c <fail>
    80004198:	09b00193          	li	gp,155
    8000419c:	0000c337          	lui	t1,0xc
    800041a0:	1c03031b          	addiw	t1,t1,448
    800041a4:	c1c0c3b7          	lui	t2,0xc1c0c
    800041a8:	ebc3839b          	addiw	t2,t2,-324
    800041ac:	02641023          	sh	t1,32(s0)
    800041b0:	01e42e03          	lw	t3,30(s0)
    800041b4:	4bc39c63          	bne	t2,t3,8000466c <fail>
    800041b8:	09c00193          	li	gp,156
    800041bc:	0c200313          	li	t1,194
    800041c0:	33c1c3b7          	lui	t2,0x33c1c
    800041c4:	2be3839b          	addiw	t2,t2,702
    800041c8:	02640023          	sb	t1,32(s0)
    800041cc:	01f46e03          	lwu	t3,31(s0)
    800041d0:	49c39e63          	bne	t2,t3,8000466c <fail>
    800041d4:	09d00193          	li	gp,157
    800041d8:	0000c337          	lui	t1,0xc
    800041dc:	4c33031b          	addiw	t1,t1,1219
    800041e0:	000313b7          	lui	t2,0x31
    800041e4:	30f3839b          	addiw	t2,t2,783
    800041e8:	00e39393          	slli	t2,t2,0xe
    800041ec:	c2038393          	addi	t2,t2,-992 # 30c20 <_start-0x7ffcf3e0>
    800041f0:	00641fa3          	sh	t1,31(s0)
    800041f4:	01d46e03          	lwu	t3,29(s0)
    800041f8:	47c39a63          	bne	t2,t3,8000466c <fail>
    800041fc:	09e00193          	li	gp,158
    80004200:	0000c337          	lui	t1,0xc
    80004204:	6c53031b          	addiw	t1,t1,1733
    80004208:	000323b7          	lui	t2,0x32
    8000420c:	b173839b          	addiw	t2,t2,-1257
    80004210:	00e39393          	slli	t2,t2,0xe
    80004214:	3bc38393          	addi	t2,t2,956 # 323bc <_start-0x7ffcdc44>
    80004218:	02641023          	sh	t1,32(s0)
    8000421c:	01e46e03          	lwu	t3,30(s0)
    80004220:	45c39663          	bne	t2,t3,8000466c <fail>
    80004224:	09f00193          	li	gp,159
    80004228:	0c700313          	li	t1,199
    8000422c:	fff1f3b7          	lui	t2,0xfff1f
    80004230:	0ef3839b          	addiw	t2,t2,239
    80004234:	00f39393          	slli	t2,t2,0xf
    80004238:	40338393          	addi	t2,t2,1027 # fffffffffff1f403 <freelist_head+0xffffffff7ff143fb>
    8000423c:	00f39393          	slli	t2,t2,0xf
    80004240:	10138393          	addi	t2,t2,257
    80004244:	00c39393          	slli	t2,t2,0xc
    80004248:	80038393          	addi	t2,t2,-2048
    8000424c:	02640023          	sb	t1,32(s0)
    80004250:	01943e03          	ld	t3,25(s0)
    80004254:	41c39c63          	bne	t2,t3,8000466c <fail>
    80004258:	0a000193          	li	gp,160
    8000425c:	0000d337          	lui	t1,0xd
    80004260:	9c83031b          	addiw	t1,t1,-1592
    80004264:	fff8e3b7          	lui	t2,0xfff8e
    80004268:	9393839b          	addiw	t2,t2,-1735
    8000426c:	00e39393          	slli	t2,t2,0xe
    80004270:	5e138393          	addi	t2,t2,1505 # fffffffffff8e5e1 <freelist_head+0xffffffff7ff835d9>
    80004274:	01139393          	slli	t2,t2,0x11
    80004278:	18138393          	addi	t2,t2,385
    8000427c:	00c39393          	slli	t2,t2,0xc
    80004280:	00838393          	addi	t2,t2,8
    80004284:	00641fa3          	sh	t1,31(s0)
    80004288:	01a43e03          	ld	t3,26(s0)
    8000428c:	3fc39063          	bne	t2,t3,8000466c <fail>
    80004290:	0a100193          	li	gp,161
    80004294:	0000d337          	lui	t1,0xd
    80004298:	bca3031b          	addiw	t1,t1,-1078
    8000429c:	00cf23b7          	lui	t2,0xcf2
    800042a0:	b2f3839b          	addiw	t2,t2,-1233
    800042a4:	00c39393          	slli	t2,t2,0xc
    800042a8:	2af38393          	addi	t2,t2,687 # cf22af <_start-0x7f30dd51>
    800042ac:	00d39393          	slli	t2,t2,0xd
    800042b0:	10138393          	addi	t2,t2,257
    800042b4:	00d39393          	slli	t2,t2,0xd
    800042b8:	81038393          	addi	t2,t2,-2032
    800042bc:	00641fa3          	sh	t1,31(s0)
    800042c0:	01b43e03          	ld	t3,27(s0)
    800042c4:	3bc39463          	bne	t2,t3,8000466c <fail>
    800042c8:	0a200193          	li	gp,162
    800042cc:	000d0337          	lui	t1,0xd0
    800042d0:	ced3031b          	addiw	t1,t1,-787
    800042d4:	00c31313          	slli	t1,t1,0xc
    800042d8:	dcc30313          	addi	t1,t1,-564 # cfdcc <_start-0x7ff30234>
    800042dc:	ff3f43b7          	lui	t2,0xff3f4
    800042e0:	b373839b          	addiw	t2,t2,-1225
    800042e4:	00d39393          	slli	t2,t2,0xd
    800042e8:	66538393          	addi	t2,t2,1637 # ffffffffff3f4665 <freelist_head+0xffffffff7f3e965d>
    800042ec:	00c39393          	slli	t2,t2,0xc
    800042f0:	5e138393          	addi	t2,t2,1505
    800042f4:	00d39393          	slli	t2,t2,0xd
    800042f8:	01838393          	addi	t2,t2,24
    800042fc:	02642023          	sw	t1,32(s0)
    80004300:	01c43e03          	ld	t3,28(s0)
    80004304:	37c39463          	bne	t2,t3,8000466c <fail>
    80004308:	0a300193          	li	gp,163
    8000430c:	000d4337          	lui	t1,0xd4
    80004310:	d2d3031b          	addiw	t1,t1,-723
    80004314:	00c31313          	slli	t1,t1,0xc
    80004318:	1d030313          	addi	t1,t1,464 # d41d0 <_start-0x7ff2be30>
    8000431c:	000d73b7          	lui	t2,0xd7
    80004320:	3f53839b          	addiw	t2,t2,1013
    80004324:	00e39393          	slli	t2,t2,0xe
    80004328:	d2d38393          	addi	t2,t2,-723 # d6d2d <_start-0x7ff292d3>
    8000432c:	00e39393          	slli	t2,t2,0xe
    80004330:	74338393          	addi	t2,t2,1859
    80004334:	00e39393          	slli	t2,t2,0xe
    80004338:	c2038393          	addi	t2,t2,-992
    8000433c:	00642fa3          	sw	t1,31(s0)
    80004340:	01d43e03          	ld	t3,29(s0)
    80004344:	33c39463          	bne	t2,t3,8000466c <fail>
    80004348:	0a400193          	li	gp,164
    8000434c:	000d8337          	lui	t1,0xd8
    80004350:	d6d3031b          	addiw	t1,t1,-659
    80004354:	00c31313          	slli	t1,t1,0xc
    80004358:	5d430313          	addi	t1,t1,1492 # d85d4 <_start-0x7ff27a2c>
    8000435c:	000363b7          	lui	t2,0x36
    80004360:	35d3839b          	addiw	t2,t2,861
    80004364:	01139393          	slli	t2,t2,0x11
    80004368:	a7b38393          	addi	t2,t2,-1413 # 35a7b <_start-0x7ffca585>
    8000436c:	00f39393          	slli	t2,t2,0xf
    80004370:	d6d38393          	addi	t2,t2,-659
    80004374:	00c39393          	slli	t2,t2,0xc
    80004378:	5d438393          	addi	t2,t2,1492
    8000437c:	00642f23          	sw	t1,30(s0)
    80004380:	01e43e03          	ld	t3,30(s0)
    80004384:	2fc39463          	bne	t2,t3,8000466c <fail>
    80004388:	0a500193          	li	gp,165
    8000438c:	0006e337          	lui	t1,0x6e
    80004390:	ed73031b          	addiw	t1,t1,-297
    80004394:	00d31313          	slli	t1,t1,0xd
    80004398:	9d830313          	addi	t1,t1,-1576 # 6d9d8 <_start-0x7ff92628>
    8000439c:	00dce3b7          	lui	t2,0xdce
    800043a0:	8d73839b          	addiw	t2,t2,-1833
    800043a4:	00c39393          	slli	t2,t2,0xc
    800043a8:	3f538393          	addi	t2,t2,1013 # dce3f5 <_start-0x7f231c0b>
    800043ac:	00d39393          	slli	t2,t2,0xd
    800043b0:	ebf38393          	addi	t2,t2,-321
    800043b4:	00d39393          	slli	t2,t2,0xd
    800043b8:	bda38393          	addi	t2,t2,-1062
    800043bc:	00642ea3          	sw	t1,29(s0)
    800043c0:	01f43e03          	ld	t3,31(s0)
    800043c4:	2bc39463          	bne	t2,t3,8000466c <fail>
    800043c8:	0a600193          	li	gp,166
    800043cc:	0dc00313          	li	t1,220
    800043d0:	ffff93b7          	lui	t2,0xffff9
    800043d4:	1dc3839b          	addiw	t2,t2,476
    800043d8:	02640fa3          	sb	t1,63(s0)
    800043dc:	03f41e03          	lh	t3,63(s0)
    800043e0:	29c39663          	bne	t2,t3,8000466c <fail>
    800043e4:	0a700193          	li	gp,167
    800043e8:	0dd00313          	li	t1,221
    800043ec:	0000e3b7          	lui	t2,0xe
    800043f0:	ddc3839b          	addiw	t2,t2,-548
    800043f4:	04640023          	sb	t1,64(s0)
    800043f8:	03f45e03          	lhu	t3,63(s0)
    800043fc:	27c39863          	bne	t2,t3,8000466c <fail>
    80004400:	0a800193          	li	gp,168
    80004404:	0000e337          	lui	t1,0xe
    80004408:	fde3031b          	addiw	t1,t1,-34
    8000440c:	92dde3b7          	lui	t2,0x92dde
    80004410:	fde3839b          	addiw	t2,t2,-34
    80004414:	02641f23          	sh	t1,62(s0)
    80004418:	03e42e03          	lw	t3,62(s0)
    8000441c:	25c39863          	bne	t2,t3,8000466c <fail>
    80004420:	0a900193          	li	gp,169
    80004424:	0000e337          	lui	t1,0xe
    80004428:	1e03031b          	addiw	t1,t1,480
    8000442c:	92e1e3b7          	lui	t2,0x92e1e
    80004430:	0de3839b          	addiw	t2,t2,222
    80004434:	02641fa3          	sh	t1,63(s0)
    80004438:	03e42e03          	lw	t3,62(s0)
    8000443c:	23c39863          	bne	t2,t3,8000466c <fail>
    80004440:	0aa00193          	li	gp,170
    80004444:	0000e337          	lui	t1,0xe
    80004448:	3e23031b          	addiw	t1,t1,994
    8000444c:	e3e2e3b7          	lui	t2,0xe3e2e
    80004450:	0de3839b          	addiw	t2,t2,222
    80004454:	04641023          	sh	t1,64(s0)
    80004458:	03e42e03          	lw	t3,62(s0)
    8000445c:	21c39863          	bne	t2,t3,8000466c <fail>
    80004460:	0ab00193          	li	gp,171
    80004464:	0e400313          	li	t1,228
    80004468:	0004a3b7          	lui	t2,0x4a
    8000446c:	f1f3839b          	addiw	t2,t2,-225
    80004470:	00d39393          	slli	t2,t2,0xd
    80004474:	4e038393          	addi	t2,t2,1248 # 4a4e0 <_start-0x7ffb5b20>
    80004478:	04640023          	sb	t1,64(s0)
    8000447c:	03f46e03          	lwu	t3,63(s0)
    80004480:	1fc39663          	bne	t2,t3,8000466c <fail>
    80004484:	0ac00193          	li	gp,172
    80004488:	0000e337          	lui	t1,0xe
    8000448c:	6e53031b          	addiw	t1,t1,1765
    80004490:	000733b7          	lui	t2,0x73
    80004494:	72f3839b          	addiw	t2,t2,1839
    80004498:	00d39393          	slli	t2,t2,0xd
    8000449c:	e8038393          	addi	t2,t2,-384 # 72e80 <_start-0x7ff8d180>
    800044a0:	02641fa3          	sh	t1,63(s0)
    800044a4:	03d46e03          	lwu	t3,61(s0)
    800044a8:	1dc39263          	bne	t2,t3,8000466c <fail>
    800044ac:	0ad00193          	li	gp,173
    800044b0:	0000f337          	lui	t1,0xf
    800044b4:	8e73031b          	addiw	t1,t1,-1817
    800044b8:	000743b7          	lui	t2,0x74
    800044bc:	73f3839b          	addiw	t2,t2,1855
    800044c0:	00d39393          	slli	t2,t2,0xd
    800044c4:	5de38393          	addi	t2,t2,1502 # 745de <_start-0x7ff8ba22>
    800044c8:	04641023          	sh	t1,64(s0)
    800044cc:	03e46e03          	lwu	t3,62(s0)
    800044d0:	19c39e63          	bne	t2,t3,8000466c <fail>
    800044d4:	0ae00193          	li	gp,174
    800044d8:	0e900313          	li	t1,233
    800044dc:	ffd3d3b7          	lui	t2,0xffd3d
    800044e0:	bbd3839b          	addiw	t2,t2,-1091
    800044e4:	00c39393          	slli	t2,t2,0xc
    800044e8:	00f38393          	addi	t2,t2,15 # ffffffffffd3d00f <freelist_head+0xffffffff7fd32007>
    800044ec:	00f39393          	slli	t2,t2,0xf
    800044f0:	70738393          	addi	t2,t2,1799
    800044f4:	00c39393          	slli	t2,t2,0xc
    800044f8:	86038393          	addi	t2,t2,-1952
    800044fc:	04640023          	sb	t1,64(s0)
    80004500:	03943e03          	ld	t3,57(s0)
    80004504:	17c39463          	bne	t2,t3,8000466c <fail>
    80004508:	0af00193          	li	gp,175
    8000450c:	0000f337          	lui	t1,0xf
    80004510:	bea3031b          	addiw	t1,t1,-1046
    80004514:	d1d7d3b7          	lui	t2,0xd1d7d
    80004518:	5bd3839b          	addiw	t2,t2,1469
    8000451c:	01339393          	slli	t2,t2,0x13
    80004520:	78738393          	addi	t2,t2,1927 # ffffffffd1d7d787 <freelist_head+0xffffffff51d7277f>
    80004524:	00c39393          	slli	t2,t2,0xc
    80004528:	06838393          	addi	t2,t2,104
    8000452c:	02641fa3          	sh	t1,63(s0)
    80004530:	03a43e03          	ld	t3,58(s0)
    80004534:	13c39c63          	bne	t2,t3,8000466c <fail>
    80004538:	0b000193          	li	gp,176
    8000453c:	0000f337          	lui	t1,0xf
    80004540:	dec3031b          	addiw	t1,t1,-532
    80004544:	ffc9f3b7          	lui	t2,0xffc9f
    80004548:	4773839b          	addiw	t2,t2,1143
    8000454c:	00c39393          	slli	t2,t2,0xc
    80004550:	f6738393          	addi	t2,t2,-153 # ffffffffffc9ef67 <freelist_head+0xffffffff7fc93f5f>
    80004554:	00e39393          	slli	t2,t2,0xe
    80004558:	d0138393          	addi	t2,t2,-767
    8000455c:	00f39393          	slli	t2,t2,0xf
    80004560:	87038393          	addi	t2,t2,-1936
    80004564:	02641fa3          	sh	t1,63(s0)
    80004568:	03b43e03          	ld	t3,59(s0)
    8000456c:	11c39063          	bne	t2,t3,8000466c <fail>
    80004570:	0b100193          	li	gp,177
    80004574:	000f2337          	lui	t1,0xf2
    80004578:	f0f3031b          	addiw	t1,t1,-241
    8000457c:	00c31313          	slli	t1,t1,0xc
    80004580:	fee30313          	addi	t1,t1,-18 # f1fee <_start-0x7ff0e012>
    80004584:	ffff23b7          	lui	t2,0xffff2
    80004588:	f0f3839b          	addiw	t2,t2,-241
    8000458c:	01039393          	slli	t2,t2,0x10
    80004590:	eef38393          	addi	t2,t2,-273 # ffffffffffff1eef <freelist_head+0xffffffff7ffe6ee7>
    80004594:	00d39393          	slli	t2,t2,0xd
    80004598:	9bd38393          	addi	t2,t2,-1603
    8000459c:	00f39393          	slli	t2,t2,0xf
    800045a0:	07838393          	addi	t2,t2,120
    800045a4:	04642023          	sw	t1,64(s0)
    800045a8:	03c43e03          	ld	t3,60(s0)
    800045ac:	0dc39063          	bne	t2,t3,8000466c <fail>
    800045b0:	0b200193          	li	gp,178
    800045b4:	000f6337          	lui	t1,0xf6
    800045b8:	f4f3031b          	addiw	t1,t1,-177
    800045bc:	00c31313          	slli	t1,t1,0xc
    800045c0:	3f230313          	addi	t1,t1,1010 # f63f2 <_start-0x7ff09c0e>
    800045c4:	ffcb03b7          	lui	t2,0xffcb0
    800045c8:	8fb3839b          	addiw	t2,t2,-1797
    800045cc:	00f39393          	slli	t2,t2,0xf
    800045d0:	d3d38393          	addi	t2,t2,-707 # ffffffffffcafd3d <freelist_head+0xffffffff7fca4d35>
    800045d4:	00d39393          	slli	t2,t2,0xd
    800045d8:	f9738393          	addi	t2,t2,-105
    800045dc:	00d39393          	slli	t2,t2,0xd
    800045e0:	e8038393          	addi	t2,t2,-384
    800045e4:	02642fa3          	sw	t1,63(s0)
    800045e8:	03d43e03          	ld	t3,61(s0)
    800045ec:	09c39063          	bne	t2,t3,8000466c <fail>
    800045f0:	0b300193          	li	gp,179
    800045f4:	000fa337          	lui	t1,0xfa
    800045f8:	f8f3031b          	addiw	t1,t1,-113
    800045fc:	00c31313          	slli	t1,t1,0xc
    80004600:	7f630313          	addi	t1,t1,2038 # fa7f6 <_start-0x7ff0580a>
    80004604:	ffcb53b7          	lui	t2,0xffcb5
    80004608:	af93839b          	addiw	t2,t2,-1287
    8000460c:	01039393          	slli	t2,t2,0x10
    80004610:	afd38393          	addi	t2,t2,-1283 # ffffffffffcb4afd <freelist_head+0xffffffff7fca9af5>
    80004614:	00d39393          	slli	t2,t2,0xd
    80004618:	f8f38393          	addi	t2,t2,-113
    8000461c:	00c39393          	slli	t2,t2,0xc
    80004620:	7f638393          	addi	t2,t2,2038
    80004624:	02642f23          	sw	t1,62(s0)
    80004628:	03e43e03          	ld	t3,62(s0)
    8000462c:	05c39063          	bne	t2,t3,8000466c <fail>
    80004630:	0b400193          	li	gp,180
    80004634:	00010337          	lui	t1,0x10
    80004638:	dfd3031b          	addiw	t1,t1,-515
    8000463c:	01031313          	slli	t1,t1,0x10
    80004640:	bfa30313          	addi	t1,t1,-1030 # fbfa <_start-0x7fff0406>
    80004644:	cbcb53b7          	lui	t2,0xcbcb5
    80004648:	af93839b          	addiw	t2,t2,-1287
    8000464c:	01039393          	slli	t2,t2,0x10
    80004650:	afd38393          	addi	t2,t2,-1283 # ffffffffcbcb4afd <freelist_head+0xffffffff4bca9af5>
    80004654:	01139393          	slli	t2,t2,0x11
    80004658:	dfc38393          	addi	t2,t2,-516
    8000465c:	02642ea3          	sw	t1,61(s0)
    80004660:	03f43e03          	ld	t3,63(s0)
    80004664:	01c39463          	bne	t2,t3,8000466c <fail>
    80004668:	00301a63          	bne	zero,gp,8000467c <pass>

000000008000466c <fail>:
    8000466c:	00119513          	slli	a0,gp,0x1
    80004670:	00050063          	beqz	a0,80004670 <fail+0x4>
    80004674:	00156513          	ori	a0,a0,1
    80004678:	00000073          	ecall

000000008000467c <pass>:
    8000467c:	00100513          	li	a0,1
    80004680:	00000073          	ecall
    80004684:	c0001073          	unimp
