
mm.riscv:     file format elf64-littleriscv


Disassembly of section .text.init:

0000000080000000 <_start>:
    80000000:	4081                	li	ra,0
    80000002:	4101                	li	sp,0
    80000004:	4181                	li	gp,0
    80000006:	4201                	li	tp,0
    80000008:	4281                	li	t0,0
    8000000a:	4301                	li	t1,0
    8000000c:	4381                	li	t2,0
    8000000e:	4401                	li	s0,0
    80000010:	4481                	li	s1,0
    80000012:	4501                	li	a0,0
    80000014:	4581                	li	a1,0
    80000016:	4601                	li	a2,0
    80000018:	4681                	li	a3,0
    8000001a:	4701                	li	a4,0
    8000001c:	4781                	li	a5,0
    8000001e:	4801                	li	a6,0
    80000020:	4881                	li	a7,0
    80000022:	4901                	li	s2,0
    80000024:	4981                	li	s3,0
    80000026:	4a01                	li	s4,0
    80000028:	4a81                	li	s5,0
    8000002a:	4b01                	li	s6,0
    8000002c:	4b81                	li	s7,0
    8000002e:	4c01                	li	s8,0
    80000030:	4c81                	li	s9,0
    80000032:	4d01                	li	s10,0
    80000034:	4d81                	li	s11,0
    80000036:	4e01                	li	t3,0
    80000038:	4e81                	li	t4,0
    8000003a:	4f01                	li	t5,0
    8000003c:	4f81                	li	t6,0
    8000003e:	62f9                	lui	t0,0x1e
    80000040:	6002829b          	addiw	t0,t0,1536
    80000044:	3002a073          	csrs	mstatus,t0
    80000048:	4285                	li	t0,1
    8000004a:	02fe                	slli	t0,t0,0x1f
    8000004c:	0002d863          	bgez	t0,8000005c <_start+0x5c>
    80000050:	4505                	li	a0,1
    80000052:	00001297          	auipc	t0,0x1
    80000056:	faa2a723          	sw	a0,-82(t0) # 80001000 <tohost>
    8000005a:	bfdd                	j	80000050 <_start+0x50>
    8000005c:	00000297          	auipc	t0,0x0
    80000060:	09028293          	addi	t0,t0,144 # 800000ec <_start+0xec>
    80000064:	30529073          	csrw	mtvec,t0
    80000068:	00301073          	fscsr	zero
    8000006c:	f0000053          	fmv.w.x	ft0,zero
    80000070:	f00000d3          	fmv.w.x	ft1,zero
    80000074:	f0000153          	fmv.w.x	ft2,zero
    80000078:	f00001d3          	fmv.w.x	ft3,zero
    8000007c:	f0000253          	fmv.w.x	ft4,zero
    80000080:	f00002d3          	fmv.w.x	ft5,zero
    80000084:	f0000353          	fmv.w.x	ft6,zero
    80000088:	f00003d3          	fmv.w.x	ft7,zero
    8000008c:	f0000453          	fmv.w.x	fs0,zero
    80000090:	f00004d3          	fmv.w.x	fs1,zero
    80000094:	f0000553          	fmv.w.x	fa0,zero
    80000098:	f00005d3          	fmv.w.x	fa1,zero
    8000009c:	f0000653          	fmv.w.x	fa2,zero
    800000a0:	f00006d3          	fmv.w.x	fa3,zero
    800000a4:	f0000753          	fmv.w.x	fa4,zero
    800000a8:	f00007d3          	fmv.w.x	fa5,zero
    800000ac:	f0000853          	fmv.w.x	fa6,zero
    800000b0:	f00008d3          	fmv.w.x	fa7,zero
    800000b4:	f0000953          	fmv.w.x	fs2,zero
    800000b8:	f00009d3          	fmv.w.x	fs3,zero
    800000bc:	f0000a53          	fmv.w.x	fs4,zero
    800000c0:	f0000ad3          	fmv.w.x	fs5,zero
    800000c4:	f0000b53          	fmv.w.x	fs6,zero
    800000c8:	f0000bd3          	fmv.w.x	fs7,zero
    800000cc:	f0000c53          	fmv.w.x	fs8,zero
    800000d0:	f0000cd3          	fmv.w.x	fs9,zero
    800000d4:	f0000d53          	fmv.w.x	fs10,zero
    800000d8:	f0000dd3          	fmv.w.x	fs11,zero
    800000dc:	f0000e53          	fmv.w.x	ft8,zero
    800000e0:	f0000ed3          	fmv.w.x	ft9,zero
    800000e4:	f0000f53          	fmv.w.x	ft10,zero
    800000e8:	f0000fd3          	fmv.w.x	ft11,zero
    800000ec:	00000297          	auipc	t0,0x0
    800000f0:	03828293          	addi	t0,t0,56 # 80000124 <trap_entry>
    800000f4:	30529073          	csrw	mtvec,t0
    800000f8:	00005197          	auipc	gp,0x5
    800000fc:	69818193          	addi	gp,gp,1688 # 80005790 <__global_pointer$>
    80000100:	aef18213          	addi	tp,gp,-1297 # 8000527f <_end+0x3f>
    80000104:	fc027213          	andi	tp,tp,-64
    80000108:	f1402573          	csrr	a0,mhartid
    8000010c:	4585                	li	a1,1
    8000010e:	00b57063          	bgeu	a0,a1,8000010e <_start+0x10e>
    80000112:	00150113          	addi	sp,a0,1
    80000116:	0146                	slli	sp,sp,0x11
    80000118:	9112                	add	sp,sp,tp
    8000011a:	01151613          	slli	a2,a0,0x11
    8000011e:	9232                	add	tp,tp,a2
    80000120:	4c90406f          	j	80004de8 <_init>

0000000080000124 <trap_entry>:
    80000124:	716d                	addi	sp,sp,-272
    80000126:	e406                	sd	ra,8(sp)
    80000128:	e80a                	sd	sp,16(sp)
    8000012a:	ec0e                	sd	gp,24(sp)
    8000012c:	f012                	sd	tp,32(sp)
    8000012e:	f416                	sd	t0,40(sp)
    80000130:	f81a                	sd	t1,48(sp)
    80000132:	fc1e                	sd	t2,56(sp)
    80000134:	e0a2                	sd	s0,64(sp)
    80000136:	e4a6                	sd	s1,72(sp)
    80000138:	e8aa                	sd	a0,80(sp)
    8000013a:	ecae                	sd	a1,88(sp)
    8000013c:	f0b2                	sd	a2,96(sp)
    8000013e:	f4b6                	sd	a3,104(sp)
    80000140:	f8ba                	sd	a4,112(sp)
    80000142:	fcbe                	sd	a5,120(sp)
    80000144:	e142                	sd	a6,128(sp)
    80000146:	e546                	sd	a7,136(sp)
    80000148:	e94a                	sd	s2,144(sp)
    8000014a:	ed4e                	sd	s3,152(sp)
    8000014c:	f152                	sd	s4,160(sp)
    8000014e:	f556                	sd	s5,168(sp)
    80000150:	f95a                	sd	s6,176(sp)
    80000152:	fd5e                	sd	s7,184(sp)
    80000154:	e1e2                	sd	s8,192(sp)
    80000156:	e5e6                	sd	s9,200(sp)
    80000158:	e9ea                	sd	s10,208(sp)
    8000015a:	edee                	sd	s11,216(sp)
    8000015c:	f1f2                	sd	t3,224(sp)
    8000015e:	f5f6                	sd	t4,232(sp)
    80000160:	f9fa                	sd	t5,240(sp)
    80000162:	fdfe                	sd	t6,248(sp)
    80000164:	34202573          	csrr	a0,mcause
    80000168:	341025f3          	csrr	a1,mepc
    8000016c:	860a                	mv	a2,sp
    8000016e:	24f040ef          	jal	ra,80004bbc <handle_trap>
    80000172:	34151073          	csrw	mepc,a0
    80000176:	6289                	lui	t0,0x2
    80000178:	8002829b          	addiw	t0,t0,-2048
    8000017c:	3002a073          	csrs	mstatus,t0
    80000180:	60a2                	ld	ra,8(sp)
    80000182:	6142                	ld	sp,16(sp)
    80000184:	61e2                	ld	gp,24(sp)
    80000186:	7202                	ld	tp,32(sp)
    80000188:	72a2                	ld	t0,40(sp)
    8000018a:	7342                	ld	t1,48(sp)
    8000018c:	73e2                	ld	t2,56(sp)
    8000018e:	6406                	ld	s0,64(sp)
    80000190:	64a6                	ld	s1,72(sp)
    80000192:	6546                	ld	a0,80(sp)
    80000194:	65e6                	ld	a1,88(sp)
    80000196:	7606                	ld	a2,96(sp)
    80000198:	76a6                	ld	a3,104(sp)
    8000019a:	7746                	ld	a4,112(sp)
    8000019c:	77e6                	ld	a5,120(sp)
    8000019e:	680a                	ld	a6,128(sp)
    800001a0:	68aa                	ld	a7,136(sp)
    800001a2:	694a                	ld	s2,144(sp)
    800001a4:	69ea                	ld	s3,152(sp)
    800001a6:	7a0a                	ld	s4,160(sp)
    800001a8:	7aaa                	ld	s5,168(sp)
    800001aa:	7b4a                	ld	s6,176(sp)
    800001ac:	7bea                	ld	s7,184(sp)
    800001ae:	6c0e                	ld	s8,192(sp)
    800001b0:	6cae                	ld	s9,200(sp)
    800001b2:	6d4e                	ld	s10,208(sp)
    800001b4:	6dee                	ld	s11,216(sp)
    800001b6:	7e0e                	ld	t3,224(sp)
    800001b8:	7eae                	ld	t4,232(sp)
    800001ba:	7f4e                	ld	t5,240(sp)
    800001bc:	7fee                	ld	t6,248(sp)
    800001be:	6151                	addi	sp,sp,272
    800001c0:	30200073          	mret
    800001c4:	0000                	unimp

Disassembly of section .text:

0000000080002000 <mm_naive>:
    80002000:	14050763          	beqz	a0,8000214e <mm_naive+0x14e>
    80002004:	7159                	addi	sp,sp,-112
    80002006:	ffc67293          	andi	t0,a2,-4
    8000200a:	e4d2                	sd	s4,72(sp)
    8000200c:	83be                	mv	t2,a5
    8000200e:	8a36                	mv	s4,a3
    80002010:	ffc28793          	addi	a5,t0,-4 # 1ffc <buflen.1+0x1f7c>
    80002014:	00181313          	slli	t1,a6,0x1
    80002018:	ec6a                	sd	s10,24(sp)
    8000201a:	9342                	add	t1,t1,a6
    8000201c:	8d46                	mv	s10,a7
    8000201e:	e03e                	sd	a5,0(sp)
    80002020:	00361893          	slli	a7,a2,0x3
    80002024:	020a0793          	addi	a5,s4,32
    80002028:	f0a6                	sd	s1,96(sp)
    8000202a:	ecca                	sd	s2,88(sp)
    8000202c:	e8ce                	sd	s3,80(sp)
    8000202e:	e0d6                	sd	s5,64(sp)
    80002030:	fc5a                	sd	s6,56(sp)
    80002032:	f85e                	sd	s7,48(sp)
    80002034:	f462                	sd	s8,40(sp)
    80002036:	f066                	sd	s9,32(sp)
    80002038:	e86e                	sd	s11,16(sp)
    8000203a:	98b6                	add	a7,a7,a3
    8000203c:	f4a2                	sd	s0,104(sp)
    8000203e:	8caa                	mv	s9,a0
    80002040:	892e                	mv	s2,a1
    80002042:	89b2                	mv	s3,a2
    80002044:	8c3a                	mv	s8,a4
    80002046:	8ac2                	mv	s5,a6
    80002048:	00371d93          	slli	s11,a4,0x3
    8000204c:	00581e93          	slli	t4,a6,0x5
    80002050:	00381693          	slli	a3,a6,0x3
    80002054:	00481e13          	slli	t3,a6,0x4
    80002058:	030e                	slli	t1,t1,0x3
    8000205a:	4b81                	li	s7,0
    8000205c:	4481                	li	s1,0
    8000205e:	4b01                	li	s6,0
    80002060:	e43e                	sd	a5,8(sp)
    80002062:	0a090d63          	beqz	s2,8000211c <mm_naive+0x11c>
    80002066:	6782                	ld	a5,0(sp)
    80002068:	003b9f93          	slli	t6,s7,0x3
    8000206c:	00349413          	slli	s0,s1,0x3
    80002070:	00f48833          	add	a6,s1,a5
    80002074:	67a2                	ld	a5,8(sp)
    80002076:	080e                	slli	a6,a6,0x3
    80002078:	9fea                	add	t6,t6,s10
    8000207a:	9452                	add	s0,s0,s4
    8000207c:	983e                	add	a6,a6,a5
    8000207e:	4f01                	li	t5,0
    80002080:	000fb787          	fld	fa5,0(t6)
    80002084:	0c028163          	beqz	t0,80002146 <mm_naive+0x146>
    80002088:	f20006d3          	fmv.d.x	fa3,zero
    8000208c:	003f1713          	slli	a4,t5,0x3
    80002090:	971e                	add	a4,a4,t2
    80002092:	22d68653          	fmv.d	fa2,fa3
    80002096:	22d68753          	fmv.d	fa4,fa3
    8000209a:	87a2                	mv	a5,s0
    8000209c:	00d70533          	add	a0,a4,a3
    800020a0:	01c705b3          	add	a1,a4,t3
    800020a4:	00670633          	add	a2,a4,t1
    800020a8:	0007b287          	fld	ft5,0(a5)
    800020ac:	00073207          	fld	ft4,0(a4)
    800020b0:	0087b187          	fld	ft3,8(a5)
    800020b4:	0107b087          	fld	ft1,16(a5)
    800020b8:	2f88                	fld	fa0,24(a5)
    800020ba:	00053107          	fld	ft2,0(a0)
    800020be:	0005b007          	fld	ft0,0(a1)
    800020c2:	220c                	fld	fa1,0(a2)
    800020c4:	02078793          	addi	a5,a5,32
    800020c8:	7a42f7c3          	fmadd.d	fa5,ft5,ft4,fa5
    800020cc:	7221f743          	fmadd.d	fa4,ft3,ft2,fa4
    800020d0:	6200f643          	fmadd.d	fa2,ft1,ft0,fa2
    800020d4:	6ab576c3          	fmadd.d	fa3,fa0,fa1,fa3
    800020d8:	9776                	add	a4,a4,t4
    800020da:	fcf811e3          	bne	a6,a5,8000209c <mm_naive+0x9c>
    800020de:	02c77753          	fadd.d	fa4,fa4,fa2
    800020e2:	8796                	mv	a5,t0
    800020e4:	02d77753          	fadd.d	fa4,fa4,fa3
    800020e8:	0337f263          	bgeu	a5,s3,8000210c <mm_naive+0x10c>
    800020ec:	02fa8733          	mul	a4,s5,a5
    800020f0:	97a6                	add	a5,a5,s1
    800020f2:	078e                	slli	a5,a5,0x3
    800020f4:	97d2                	add	a5,a5,s4
    800020f6:	977a                	add	a4,a4,t5
    800020f8:	070e                	slli	a4,a4,0x3
    800020fa:	971e                	add	a4,a4,t2
    800020fc:	2390                	fld	fa2,0(a5)
    800020fe:	2314                	fld	fa3,0(a4)
    80002100:	07a1                	addi	a5,a5,8
    80002102:	9736                	add	a4,a4,a3
    80002104:	7ad677c3          	fmadd.d	fa5,fa2,fa3,fa5
    80002108:	fef89ae3          	bne	a7,a5,800020fc <mm_naive+0xfc>
    8000210c:	02e7f7d3          	fadd.d	fa5,fa5,fa4
    80002110:	0f05                	addi	t5,t5,1
    80002112:	0fa1                	addi	t6,t6,8
    80002114:	feffbc27          	fsd	fa5,-8(t6)
    80002118:	f7e914e3          	bne	s2,t5,80002080 <mm_naive+0x80>
    8000211c:	77c6                	ld	a5,112(sp)
    8000211e:	0b05                	addi	s6,s6,1
    80002120:	94e2                	add	s1,s1,s8
    80002122:	98ee                	add	a7,a7,s11
    80002124:	9bbe                	add	s7,s7,a5
    80002126:	f36c9ee3          	bne	s9,s6,80002062 <mm_naive+0x62>
    8000212a:	7426                	ld	s0,104(sp)
    8000212c:	7486                	ld	s1,96(sp)
    8000212e:	6966                	ld	s2,88(sp)
    80002130:	69c6                	ld	s3,80(sp)
    80002132:	6a26                	ld	s4,72(sp)
    80002134:	6a86                	ld	s5,64(sp)
    80002136:	7b62                	ld	s6,56(sp)
    80002138:	7bc2                	ld	s7,48(sp)
    8000213a:	7c22                	ld	s8,40(sp)
    8000213c:	7c82                	ld	s9,32(sp)
    8000213e:	6d62                	ld	s10,24(sp)
    80002140:	6dc2                	ld	s11,16(sp)
    80002142:	6165                	addi	sp,sp,112
    80002144:	8082                	ret
    80002146:	f2000753          	fmv.d.x	fa4,zero
    8000214a:	4781                	li	a5,0
    8000214c:	bf71                	j	800020e8 <mm_naive+0xe8>
    8000214e:	8082                	ret

0000000080002150 <mm_cb>:
    80002150:	d8010113          	addi	sp,sp,-640
    80002154:	26813823          	sd	s0,624(sp)
    80002158:	26913423          	sd	s1,616(sp)
    8000215c:	0500                	addi	s0,sp,640
    8000215e:	26113c23          	sd	ra,632(sp)
    80002162:	27213023          	sd	s2,608(sp)
    80002166:	25313c23          	sd	s3,600(sp)
    8000216a:	25413823          	sd	s4,592(sp)
    8000216e:	25513423          	sd	s5,584(sp)
    80002172:	25613023          	sd	s6,576(sp)
    80002176:	23713c23          	sd	s7,568(sp)
    8000217a:	23813823          	sd	s8,560(sp)
    8000217e:	23913423          	sd	s9,552(sp)
    80002182:	23a13023          	sd	s10,544(sp)
    80002186:	21b13c23          	sd	s11,536(sp)
    8000218a:	20813427          	fsd	fs0,520(sp)
    8000218e:	20913027          	fsd	fs1,512(sp)
    80002192:	bfca                	fsd	fs2,504(sp)
    80002194:	bbce                	fsd	fs3,496(sp)
    80002196:	b7d2                	fsd	fs4,488(sp)
    80002198:	b3d6                	fsd	fs5,480(sp)
    8000219a:	afda                	fsd	fs6,472(sp)
    8000219c:	abde                	fsd	fs7,464(sp)
    8000219e:	a7e2                	fsd	fs8,456(sp)
    800021a0:	a3e6                	fsd	fs9,448(sp)
    800021a2:	bf6a                	fsd	fs10,440(sp)
    800021a4:	bb6e                	fsd	fs11,432(sp)
    800021a6:	84b2                	mv	s1,a2
    800021a8:	f0c43c23          	sd	a2,-232(s0)
    800021ac:	4665                	li	a2,25
    800021ae:	ecb43c23          	sd	a1,-296(s0)
    800021b2:	02c5d5b3          	divu	a1,a1,a2
    800021b6:	4361                	li	t1,24
    800021b8:	f2e43023          	sd	a4,-224(s0)
    800021bc:	8eba                	mv	t4,a4
    800021be:	8f2a                	mv	t5,a0
    800021c0:	e8a43423          	sd	a0,-376(s0)
    800021c4:	e2d43c23          	sd	a3,-456(s0)
    800021c8:	6609                	lui	a2,0x2
    800021ca:	167d                	addi	a2,a2,-1
    800021cc:	7579                	lui	a0,0xffffe
    800021ce:	0264d733          	divu	a4,s1,t1
    800021d2:	f0b43023          	sd	a1,-256(s0)
    800021d6:	e8f43023          	sd	a5,-384(s0)
    800021da:	00159793          	slli	a5,a1,0x1
    800021de:	97ae                	add	a5,a5,a1
    800021e0:	078e                	slli	a5,a5,0x3
    800021e2:	f3043423          	sd	a6,-216(s0)
    800021e6:	00b78833          	add	a6,a5,a1
    800021ea:	eb143c23          	sd	a7,-328(s0)
    800021ee:	ef043c23          	sd	a6,-264(s0)
    800021f2:	026f5333          	divu	t1,t5,t1
    800021f6:	00171593          	slli	a1,a4,0x1
    800021fa:	00e587b3          	add	a5,a1,a4
    800021fe:	00379393          	slli	t2,a5,0x3
    80002202:	eae43423          	sd	a4,-344(s0)
    80002206:	f0743423          	sd	t2,-248(s0)
    8000220a:	00131793          	slli	a5,t1,0x1
    8000220e:	933e                	add	t1,t1,a5
    80002210:	00331493          	slli	s1,t1,0x3
    80002214:	027487b3          	mul	a5,s1,t2
    80002218:	f0943823          	sd	s1,-240(s0)
    8000221c:	40078793          	addi	a5,a5,1024
    80002220:	078e                	slli	a5,a5,0x3
    80002222:	40f10133          	sub	sp,sp,a5
    80002226:	081c                	addi	a5,sp,16
    80002228:	97b2                	add	a5,a5,a2
    8000222a:	8fe9                	and	a5,a5,a0
    8000222c:	02780733          	mul	a4,a6,t2
    80002230:	e6f43023          	sd	a5,-416(s0)
    80002234:	030487b3          	mul	a5,s1,a6
    80002238:	40070713          	addi	a4,a4,1024
    8000223c:	070e                	slli	a4,a4,0x3
    8000223e:	40e10133          	sub	sp,sp,a4
    80002242:	0818                	addi	a4,sp,16
    80002244:	9732                	add	a4,a4,a2
    80002246:	8f69                	and	a4,a4,a0
    80002248:	e4e43c23          	sd	a4,-424(s0)
    8000224c:	40078793          	addi	a5,a5,1024
    80002250:	078e                	slli	a5,a5,0x3
    80002252:	40f10133          	sub	sp,sp,a5
    80002256:	081c                	addi	a5,sp,16
    80002258:	963e                	add	a2,a2,a5
    8000225a:	00a677b3          	and	a5,a2,a0
    8000225e:	ecf43823          	sd	a5,-304(s0)
    80002262:	e099                	bnez	s1,80002268 <mm_cb+0x118>
    80002264:	4ae0106f          	j	80003712 <mm_cb+0x15c2>
    80002268:	001e9513          	slli	a0,t4,0x1
    8000226c:	87f6                	mv	a5,t4
    8000226e:	9eaa                	add	t4,t4,a0
    80002270:	0e9a                	slli	t4,t4,0x6
    80002272:	8e36                	mv	t3,a3
    80002274:	00379b93          	slli	s7,a5,0x3
    80002278:	4881                	li	a7,0
    8000227a:	42e1                	li	t0,24
    8000227c:	24000493          	li	s1,576
    80002280:	06038e63          	beqz	t2,800022fc <mm_cb+0x1ac>
    80002284:	0258d833          	divu	a6,a7,t0
    80002288:	ea843783          	ld	a5,-344(s0)
    8000228c:	8f72                	mv	t5,t3
    8000228e:	4301                	li	t1,0
    80002290:	02f80833          	mul	a6,a6,a5
    80002294:	0c0f0f13          	addi	t5,t5,192
    80002298:	86fa                	mv	a3,t5
    8000229a:	4f81                	li	t6,0
    8000229c:	025357b3          	divu	a5,t1,t0
    800022a0:	97c2                	add	a5,a5,a6
    800022a2:	00379613          	slli	a2,a5,0x3
    800022a6:	963e                	add	a2,a2,a5
    800022a8:	e6043783          	ld	a5,-416(s0)
    800022ac:	0626                	slli	a2,a2,0x9
    800022ae:	963e                	add	a2,a2,a5
    800022b0:	f4068793          	addi	a5,a3,-192
    800022b4:	8732                	mv	a4,a2
    800022b6:	0007b087          	fld	ft1,0(a5)
    800022ba:	0087b007          	fld	ft0,8(a5)
    800022be:	2b88                	fld	fa0,16(a5)
    800022c0:	2f8c                	fld	fa1,24(a5)
    800022c2:	3390                	fld	fa2,32(a5)
    800022c4:	3794                	fld	fa3,40(a5)
    800022c6:	3b98                	fld	fa4,48(a5)
    800022c8:	3f9c                	fld	fa5,56(a5)
    800022ca:	00173027          	fsd	ft1,0(a4)
    800022ce:	00073427          	fsd	ft0,8(a4)
    800022d2:	ab08                	fsd	fa0,16(a4)
    800022d4:	af0c                	fsd	fa1,24(a4)
    800022d6:	b310                	fsd	fa2,32(a4)
    800022d8:	b714                	fsd	fa3,40(a4)
    800022da:	bb18                	fsd	fa4,48(a4)
    800022dc:	bf1c                	fsd	fa5,56(a4)
    800022de:	04078793          	addi	a5,a5,64
    800022e2:	04070713          	addi	a4,a4,64
    800022e6:	fcf698e3          	bne	a3,a5,800022b6 <mm_cb+0x166>
    800022ea:	0fe1                	addi	t6,t6,24
    800022ec:	0c060613          	addi	a2,a2,192 # 20c0 <buflen.1+0x2040>
    800022f0:	96de                	add	a3,a3,s7
    800022f2:	fa9f9fe3          	bne	t6,s1,800022b0 <mm_cb+0x160>
    800022f6:	0361                	addi	t1,t1,24
    800022f8:	f8736ee3          	bltu	t1,t2,80002294 <mm_cb+0x144>
    800022fc:	f1043783          	ld	a5,-240(s0)
    80002300:	08e1                	addi	a7,a7,24
    80002302:	9e76                	add	t3,t3,t4
    80002304:	f6f8eee3          	bltu	a7,a5,80002280 <mm_cb+0x130>
    80002308:	f0843783          	ld	a5,-248(s0)
    8000230c:	e399                	bnez	a5,80002312 <mm_cb+0x1c2>
    8000230e:	30d0106f          	j	80003e1a <mm_cb+0x1cca>
    80002312:	f2843783          	ld	a5,-216(s0)
    80002316:	e8043e03          	ld	t3,-384(s0)
    8000231a:	ef843983          	ld	s3,-264(s0)
    8000231e:	00179813          	slli	a6,a5,0x1
    80002322:	00f80eb3          	add	t4,a6,a5
    80002326:	6485                	lui	s1,0x1
    80002328:	0e9a                	slli	t4,t4,0x6
    8000232a:	00379d13          	slli	s10,a5,0x3
    8000232e:	4881                	li	a7,0
    80002330:	42e1                	li	t0,24
    80002332:	43e5                	li	t2,25
    80002334:	2c048493          	addi	s1,s1,704 # 12c0 <buflen.1+0x1240>
    80002338:	25800913          	li	s2,600
    8000233c:	08098063          	beqz	s3,800023bc <mm_cb+0x26c>
    80002340:	0258d533          	divu	a0,a7,t0
    80002344:	f0043783          	ld	a5,-256(s0)
    80002348:	8f72                	mv	t5,t3
    8000234a:	4301                	li	t1,0
    8000234c:	02f50533          	mul	a0,a0,a5
    80002350:	e5843783          	ld	a5,-424(s0)
    80002354:	0c0f0693          	addi	a3,t5,192
    80002358:	4f81                	li	t6,0
    8000235a:	02735633          	divu	a2,t1,t2
    8000235e:	962a                	add	a2,a2,a0
    80002360:	02960633          	mul	a2,a2,s1
    80002364:	963e                	add	a2,a2,a5
    80002366:	f4068793          	addi	a5,a3,-192
    8000236a:	8732                	mv	a4,a2
    8000236c:	0007b087          	fld	ft1,0(a5)
    80002370:	0087b007          	fld	ft0,8(a5)
    80002374:	2b88                	fld	fa0,16(a5)
    80002376:	2f8c                	fld	fa1,24(a5)
    80002378:	3390                	fld	fa2,32(a5)
    8000237a:	3794                	fld	fa3,40(a5)
    8000237c:	3b98                	fld	fa4,48(a5)
    8000237e:	3f9c                	fld	fa5,56(a5)
    80002380:	00173027          	fsd	ft1,0(a4)
    80002384:	00073427          	fsd	ft0,8(a4)
    80002388:	ab08                	fsd	fa0,16(a4)
    8000238a:	af0c                	fsd	fa1,24(a4)
    8000238c:	b310                	fsd	fa2,32(a4)
    8000238e:	b714                	fsd	fa3,40(a4)
    80002390:	bb18                	fsd	fa4,48(a4)
    80002392:	bf1c                	fsd	fa5,56(a4)
    80002394:	04078793          	addi	a5,a5,64
    80002398:	04070713          	addi	a4,a4,64
    8000239c:	fcf698e3          	bne	a3,a5,8000236c <mm_cb+0x21c>
    800023a0:	229c                	fld	fa5,0(a3)
    800023a2:	0fe5                	addi	t6,t6,25
    800023a4:	0c860613          	addi	a2,a2,200
    800023a8:	fef63c27          	fsd	fa5,-8(a2)
    800023ac:	96ea                	add	a3,a3,s10
    800023ae:	fb2f9ce3          	bne	t6,s2,80002366 <mm_cb+0x216>
    800023b2:	0365                	addi	t1,t1,25
    800023b4:	0c8f0f13          	addi	t5,t5,200
    800023b8:	f9336ce3          	bltu	t1,s3,80002350 <mm_cb+0x200>
    800023bc:	f0843783          	ld	a5,-248(s0)
    800023c0:	08e1                	addi	a7,a7,24
    800023c2:	9e76                	add	t3,t3,t4
    800023c4:	f6f8ece3          	bltu	a7,a5,8000233c <mm_cb+0x1ec>
    800023c8:	f2043783          	ld	a5,-224(s0)
    800023cc:	00179513          	slli	a0,a5,0x1
    800023d0:	00379b93          	slli	s7,a5,0x3
    800023d4:	f1043783          	ld	a5,-240(s0)
    800023d8:	e399                	bnez	a5,800023de <mm_cb+0x28e>
    800023da:	3420106f          	j	8000371c <mm_cb+0x15cc>
    800023de:	601c                	ld	a5,0(s0)
    800023e0:	6018                	ld	a4,0(s0)
    800023e2:	eb843e83          	ld	t4,-328(s0)
    800023e6:	0786                	slli	a5,a5,0x1
    800023e8:	e2f43423          	sd	a5,-472(s0)
    800023ec:	97ba                	add	a5,a5,a4
    800023ee:	079a                	slli	a5,a5,0x6
    800023f0:	ef843383          	ld	t2,-264(s0)
    800023f4:	eaf43823          	sd	a5,-336(s0)
    800023f8:	6905                	lui	s2,0x1
    800023fa:	00371793          	slli	a5,a4,0x3
    800023fe:	eef43823          	sd	a5,-272(s0)
    80002402:	4301                	li	t1,0
    80002404:	42e1                	li	t0,24
    80002406:	44e5                	li	s1,25
    80002408:	2c090913          	addi	s2,s2,704 # 12c0 <buflen.1+0x1240>
    8000240c:	25800993          	li	s3,600
    80002410:	08038163          	beqz	t2,80002492 <mm_cb+0x342>
    80002414:	025358b3          	divu	a7,t1,t0
    80002418:	f0043783          	ld	a5,-256(s0)
    8000241c:	8f76                	mv	t5,t4
    8000241e:	4e01                	li	t3,0
    80002420:	02f888b3          	mul	a7,a7,a5
    80002424:	ed043783          	ld	a5,-304(s0)
    80002428:	0c0f0693          	addi	a3,t5,192
    8000242c:	4f81                	li	t6,0
    8000242e:	029e5633          	divu	a2,t3,s1
    80002432:	9646                	add	a2,a2,a7
    80002434:	03260633          	mul	a2,a2,s2
    80002438:	963e                	add	a2,a2,a5
    8000243a:	f4068793          	addi	a5,a3,-192
    8000243e:	8732                	mv	a4,a2
    80002440:	0007b087          	fld	ft1,0(a5)
    80002444:	0087b007          	fld	ft0,8(a5)
    80002448:	2b88                	fld	fa0,16(a5)
    8000244a:	2f8c                	fld	fa1,24(a5)
    8000244c:	3390                	fld	fa2,32(a5)
    8000244e:	3794                	fld	fa3,40(a5)
    80002450:	3b98                	fld	fa4,48(a5)
    80002452:	3f9c                	fld	fa5,56(a5)
    80002454:	00173027          	fsd	ft1,0(a4)
    80002458:	00073427          	fsd	ft0,8(a4)
    8000245c:	ab08                	fsd	fa0,16(a4)
    8000245e:	af0c                	fsd	fa1,24(a4)
    80002460:	b310                	fsd	fa2,32(a4)
    80002462:	b714                	fsd	fa3,40(a4)
    80002464:	bb18                	fsd	fa4,48(a4)
    80002466:	bf1c                	fsd	fa5,56(a4)
    80002468:	04078793          	addi	a5,a5,64
    8000246c:	04070713          	addi	a4,a4,64
    80002470:	fcf698e3          	bne	a3,a5,80002440 <mm_cb+0x2f0>
    80002474:	229c                	fld	fa5,0(a3)
    80002476:	ef043783          	ld	a5,-272(s0)
    8000247a:	0fe5                	addi	t6,t6,25
    8000247c:	a27c                	fsd	fa5,192(a2)
    8000247e:	0c860613          	addi	a2,a2,200
    80002482:	96be                	add	a3,a3,a5
    80002484:	fb3f9be3          	bne	t6,s3,8000243a <mm_cb+0x2ea>
    80002488:	0e65                	addi	t3,t3,25
    8000248a:	0c8f0f13          	addi	t5,t5,200
    8000248e:	f87e6be3          	bltu	t3,t2,80002424 <mm_cb+0x2d4>
    80002492:	eb043783          	ld	a5,-336(s0)
    80002496:	0361                	addi	t1,t1,24
    80002498:	9ebe                	add	t4,t4,a5
    8000249a:	f1043783          	ld	a5,-240(s0)
    8000249e:	f6f369e3          	bltu	t1,a5,80002410 <mm_cb+0x2c0>
    800024a2:	f1843703          	ld	a4,-232(s0)
    800024a6:	f2843603          	ld	a2,-216(s0)
    800024aa:	ea843883          	ld	a7,-344(s0)
    800024ae:	f2043303          	ld	t1,-224(s0)
    800024b2:	47e1                	li	a5,24
    800024b4:	02f774b3          	remu	s1,a4,a5
    800024b8:	00261713          	slli	a4,a2,0x2
    800024bc:	9732                	add	a4,a4,a2
    800024be:	951a                	add	a0,a0,t1
    800024c0:	00289793          	slli	a5,a7,0x2
    800024c4:	00371c13          	slli	s8,a4,0x3
    800024c8:	40f887b3          	sub	a5,a7,a5
    800024cc:	00651713          	slli	a4,a0,0x6
    800024d0:	9832                	add	a6,a6,a2
    800024d2:	079a                	slli	a5,a5,0x6
    800024d4:	e6e43c23          	sd	a4,-392(s0)
    800024d8:	e3843703          	ld	a4,-456(s0)
    800024dc:	95c6                	add	a1,a1,a7
    800024de:	dcf43423          	sd	a5,-568(s0)
    800024e2:	00681793          	slli	a5,a6,0x6
    800024e6:	00659a13          	slli	s4,a1,0x6
    800024ea:	dcf43023          	sd	a5,-576(s0)
    800024ee:	601c                	ld	a5,0(s0)
    800024f0:	9752                	add	a4,a4,s4
    800024f2:	eee43423          	sd	a4,-280(s0)
    800024f6:	00531713          	slli	a4,t1,0x5
    800024fa:	0796                	slli	a5,a5,0x5
    800024fc:	e4e43023          	sd	a4,-448(s0)
    80002500:	ed843703          	ld	a4,-296(s0)
    80002504:	dcf43c23          	sd	a5,-552(s0)
    80002508:	77fd                	lui	a5,0xfffff
    8000250a:	d4078a93          	addi	s5,a5,-704 # ffffffffffffed40 <__global_pointer$+0xffffffff7fff95b0>
    8000250e:	47e5                	li	a5,25
    80002510:	4695                	li	a3,5
    80002512:	00461293          	slli	t0,a2,0x4
    80002516:	85b2                	mv	a1,a2
    80002518:	00561c93          	slli	s9,a2,0x5
    8000251c:	00481b13          	slli	s6,a6,0x4
    80002520:	00381393          	slli	t2,a6,0x3
    80002524:	8a5a                	mv	s4,s6
    80002526:	ea043023          	sd	zero,-352(s0)
    8000252a:	02f77533          	remu	a0,a4,a5
    8000252e:	00349793          	slli	a5,s1,0x3
    80002532:	def43823          	sd	a5,-528(s0)
    80002536:	4799                	li	a5,6
    80002538:	e4943823          	sd	s1,-432(s0)
    8000253c:	02f4d7b3          	divu	a5,s1,a5
    80002540:	e0a43423          	sd	a0,-504(s0)
    80002544:	02d55633          	divu	a2,a0,a3
    80002548:	00179713          	slli	a4,a5,0x1
    8000254c:	973e                	add	a4,a4,a5
    8000254e:	0712                	slli	a4,a4,0x4
    80002550:	dce43823          	sd	a4,-560(s0)
    80002554:	f0843703          	ld	a4,-248(s0)
    80002558:	02b70733          	mul	a4,a4,a1
    8000255c:	00261593          	slli	a1,a2,0x2
    80002560:	962e                	add	a2,a2,a1
    80002562:	f0043583          	ld	a1,-256(s0)
    80002566:	ecc43023          	sd	a2,-320(s0)
    8000256a:	060e                	slli	a2,a2,0x3
    8000256c:	e2c43823          	sd	a2,-464(s0)
    80002570:	0c800613          	li	a2,200
    80002574:	02c58633          	mul	a2,a1,a2
    80002578:	e8043583          	ld	a1,-384(s0)
    8000257c:	070e                	slli	a4,a4,0x3
    8000257e:	972e                	add	a4,a4,a1
    80002580:	e4e43423          	sd	a4,-440(s0)
    80002584:	02d57733          	remu	a4,a0,a3
    80002588:	02fb07b3          	mul	a5,s6,a5
    8000258c:	dee43423          	sd	a4,-536(s0)
    80002590:	eb843703          	ld	a4,-328(s0)
    80002594:	8b62                	mv	s6,s8
    80002596:	8c1e                	mv	s8,t2
    80002598:	9732                	add	a4,a4,a2
    8000259a:	eee43023          	sd	a4,-288(s0)
    8000259e:	00c58733          	add	a4,a1,a2
    800025a2:	dee43023          	sd	a4,-544(s0)
    800025a6:	def43c23          	sd	a5,-520(s0)
    800025aa:	87ea                	mv	a5,s10
    800025ac:	8d5e                	mv	s10,s7
    800025ae:	8be6                	mv	s7,s9
    800025b0:	8c96                	mv	s9,t0
    800025b2:	82be                	mv	t0,a5
    800025b4:	ef843783          	ld	a5,-264(s0)
    800025b8:	e399                	bnez	a5,800025be <mm_cb+0x46e>
    800025ba:	7f10006f          	j	800035aa <mm_cb+0x145a>
    800025be:	ea043703          	ld	a4,-352(s0)
    800025c2:	47e1                	li	a5,24
    800025c4:	ee843683          	ld	a3,-280(s0)
    800025c8:	02f757b3          	divu	a5,a4,a5
    800025cc:	e7843703          	ld	a4,-392(s0)
    800025d0:	ec043423          	sd	zero,-312(s0)
    800025d4:	e3943023          	sd	s9,-480(s0)
    800025d8:	9736                	add	a4,a4,a3
    800025da:	e6e43823          	sd	a4,-400(s0)
    800025de:	e4843703          	ld	a4,-440(s0)
    800025e2:	8996                	mv	s3,t0
    800025e4:	e8e43823          	sd	a4,-368(s0)
    800025e8:	ea843703          	ld	a4,-344(s0)
    800025ec:	02e78733          	mul	a4,a5,a4
    800025f0:	e0e43c23          	sd	a4,-488(s0)
    800025f4:	f0043703          	ld	a4,-256(s0)
    800025f8:	02e787b3          	mul	a5,a5,a4
    800025fc:	e6f43423          	sd	a5,-408(s0)
    80002600:	f0843783          	ld	a5,-248(s0)
    80002604:	48078363          	beqz	a5,80002a8a <mm_cb+0x93a>
    80002608:	ec843783          	ld	a5,-312(s0)
    8000260c:	4765                	li	a4,25
    8000260e:	e8043c23          	sd	zero,-360(s0)
    80002612:	02e7d7b3          	divu	a5,a5,a4
    80002616:	e6843703          	ld	a4,-408(s0)
    8000261a:	db743823          	sd	s7,-592(s0)
    8000261e:	db643423          	sd	s6,-600(s0)
    80002622:	db443023          	sd	s4,-608(s0)
    80002626:	d9343c23          	sd	s3,-616(s0)
    8000262a:	e0f43823          	sd	a5,-496(s0)
    8000262e:	97ba                	add	a5,a5,a4
    80002630:	6705                	lui	a4,0x1
    80002632:	2c070693          	addi	a3,a4,704 # 12c0 <buflen.1+0x1240>
    80002636:	02d787b3          	mul	a5,a5,a3
    8000263a:	ed043683          	ld	a3,-304(s0)
    8000263e:	2c070713          	addi	a4,a4,704
    80002642:	97b6                	add	a5,a5,a3
    80002644:	973e                	add	a4,a4,a5
    80002646:	0c878793          	addi	a5,a5,200
    8000264a:	e0e43023          	sd	a4,-512(s0)
    8000264e:	daf43c23          	sd	a5,-584(s0)
    80002652:	e9843703          	ld	a4,-360(s0)
    80002656:	47e1                	li	a5,24
    80002658:	db843b83          	ld	s7,-584(s0)
    8000265c:	02f757b3          	divu	a5,a4,a5
    80002660:	f0043703          	ld	a4,-256(s0)
    80002664:	4b01                	li	s6,0
    80002666:	02e78933          	mul	s2,a5,a4
    8000266a:	e1843703          	ld	a4,-488(s0)
    8000266e:	97ba                	add	a5,a5,a4
    80002670:	00379713          	slli	a4,a5,0x3
    80002674:	97ba                	add	a5,a5,a4
    80002676:	e6043703          	ld	a4,-416(s0)
    8000267a:	07a6                	slli	a5,a5,0x9
    8000267c:	00f709b3          	add	s3,a4,a5
    80002680:	e1043783          	ld	a5,-496(s0)
    80002684:	8dce                	mv	s11,s3
    80002686:	993e                	add	s2,s2,a5
    80002688:	6785                	lui	a5,0x1
    8000268a:	2c078713          	addi	a4,a5,704 # 12c0 <buflen.1+0x1240>
    8000268e:	02e90933          	mul	s2,s2,a4
    80002692:	e5843703          	ld	a4,-424(s0)
    80002696:	993a                	add	s2,s2,a4
    80002698:	2c078713          	addi	a4,a5,704
    8000269c:	38878793          	addi	a5,a5,904
    800026a0:	0c890c93          	addi	s9,s2,200
    800026a4:	00e904b3          	add	s1,s2,a4
    800026a8:	00f90a33          	add	s4,s2,a5
    800026ac:	f38b8793          	addi	a5,s7,-200
    800026b0:	86a6                	mv	a3,s1
    800026b2:	2607bf87          	fld	ft11,608(a5)
    800026b6:	2707b987          	fld	fs3,624(a5)
    800026ba:	2787be07          	fld	ft8,632(a5)
    800026be:	0007b387          	fld	ft7,0(a5)
    800026c2:	0087b807          	fld	fa6,8(a5)
    800026c6:	0107bd87          	fld	fs11,16(a5)
    800026ca:	0187bd07          	fld	fs10,24(a5)
    800026ce:	3394                	fld	fa3,32(a5)
    800026d0:	0c87bc87          	fld	fs9,200(a5)
    800026d4:	0d07bc07          	fld	fs8,208(a5)
    800026d8:	0d87bb87          	fld	fs7,216(a5)
    800026dc:	0e07b307          	fld	ft6,224(a5)
    800026e0:	37f8                	fld	fa4,232(a5)
    800026e2:	1907b287          	fld	ft5,400(a5)
    800026e6:	1987b207          	fld	ft4,408(a5)
    800026ea:	1a07b507          	fld	fa0,416(a5)
    800026ee:	1a87b587          	fld	fa1,424(a5)
    800026f2:	1b07b787          	fld	fa5,432(a5)
    800026f6:	2587bf07          	fld	ft10,600(a5)
    800026fa:	2687b487          	fld	fs1,616(a5)
    800026fe:	23ce0a53          	fmv.d	fs4,ft8
    80002702:	233981d3          	fmv.d	ft3,fs3
    80002706:	23ff8b53          	fmv.d	fs6,ft11
    8000270a:	01568733          	add	a4,a3,s5
    8000270e:	866e                	mv	a2,s11
    80002710:	00063087          	fld	ft1,0(a2)
    80002714:	0c063007          	fld	ft0,192(a2)
    80002718:	18063607          	fld	fa2,384(a2)
    8000271c:	24063107          	fld	ft2,576(a2)
    80002720:	01873907          	fld	fs2,24(a4)
    80002724:	02073987          	fld	fs3,32(a4)
    80002728:	00073887          	fld	fa7,0(a4)
    8000272c:	00873e87          	fld	ft9,8(a4)
    80002730:	2b00                	fld	fs0,16(a4)
    80002732:	3b10f3c3          	fmadd.d	ft7,ft1,fa7,ft7
    80002736:	83d0f843          	fmadd.d	fa6,ft1,ft9,fa6
    8000273a:	da80fdc3          	fmadd.d	fs11,ft1,fs0,fs11
    8000273e:	d320fd43          	fmadd.d	fs10,ft1,fs2,fs10
    80002742:	6b30f6c3          	fmadd.d	fa3,ft1,fs3,fa3
    80002746:	cb107cc3          	fmadd.d	fs9,ft0,fa7,fs9
    8000274a:	c3d07c43          	fmadd.d	fs8,ft0,ft9,fs8
    8000274e:	ba807bc3          	fmadd.d	fs7,ft0,fs0,fs7
    80002752:	33207343          	fmadd.d	ft6,ft0,fs2,ft6
    80002756:	73307743          	fmadd.d	fa4,ft0,fs3,fa4
    8000275a:	2b1672c3          	fmadd.d	ft5,fa2,fa7,ft5
    8000275e:	23d67243          	fmadd.d	ft4,fa2,ft9,ft4
    80002762:	52867543          	fmadd.d	fa0,fa2,fs0,fa0
    80002766:	5b2675c3          	fmadd.d	fa1,fa2,fs2,fa1
    8000276a:	7b3677c3          	fmadd.d	fa5,fa2,fs3,fa5
    8000276e:	f31178c3          	fmadd.d	fa7,ft2,fa7,ft10
    80002772:	b3d17ec3          	fmadd.d	ft9,ft2,ft9,fs6
    80002776:	4a817443          	fmadd.d	fs0,ft2,fs0,fs1
    8000277a:	1b2171c3          	fmadd.d	ft3,ft2,fs2,ft3
    8000277e:	a3317143          	fmadd.d	ft2,ft2,fs3,fs4
    80002782:	00863087          	fld	ft1,8(a2)
    80002786:	0c863007          	fld	ft0,200(a2)
    8000278a:	18863607          	fld	fa2,392(a2)
    8000278e:	24863e07          	fld	ft8,584(a2)
    80002792:	0c873987          	fld	fs3,200(a4)
    80002796:	0d073f87          	fld	ft11,208(a4)
    8000279a:	2f64                	fld	fs1,216(a4)
    8000279c:	0e073907          	fld	fs2,224(a4)
    800027a0:	0e873a07          	fld	fs4,232(a4)
    800027a4:	8b3e78c3          	fmadd.d	fa7,ft8,fs3,fa7
    800027a8:	3b30f3c3          	fmadd.d	ft7,ft1,fs3,ft7
    800027ac:	6b40f6c3          	fmadd.d	fa3,ft1,fs4,fa3
    800027b0:	73407743          	fmadd.d	fa4,ft0,fs4,fa4
    800027b4:	7b4677c3          	fmadd.d	fa5,fa2,fs4,fa5
    800027b8:	83f0f843          	fmadd.d	fa6,ft1,ft11,fa6
    800027bc:	da90fdc3          	fmadd.d	fs11,ft1,fs1,fs11
    800027c0:	d320fd43          	fmadd.d	fs10,ft1,fs2,fs10
    800027c4:	cb307cc3          	fmadd.d	fs9,ft0,fs3,fs9
    800027c8:	c3f07c43          	fmadd.d	fs8,ft0,ft11,fs8
    800027cc:	ba907bc3          	fmadd.d	fs7,ft0,fs1,fs7
    800027d0:	33207343          	fmadd.d	ft6,ft0,fs2,ft6
    800027d4:	2b3672c3          	fmadd.d	ft5,fa2,fs3,ft5
    800027d8:	23f67243          	fmadd.d	ft4,fa2,ft11,ft4
    800027dc:	52967543          	fmadd.d	fa0,fa2,fs1,fa0
    800027e0:	5b2675c3          	fmadd.d	fa1,fa2,fs2,fa1
    800027e4:	ebfe7ec3          	fmadd.d	ft9,ft8,ft11,ft9
    800027e8:	429e7443          	fmadd.d	fs0,ft8,fs1,fs0
    800027ec:	1b2e71c3          	fmadd.d	ft3,ft8,fs2,ft3
    800027f0:	134e7143          	fmadd.d	ft2,ft8,fs4,ft2
    800027f4:	01063087          	fld	ft1,16(a2)
    800027f8:	25063e07          	fld	ft8,592(a2)
    800027fc:	0d063007          	fld	ft0,208(a2)
    80002800:	19063607          	fld	fa2,400(a2)
    80002804:	1a073487          	fld	fs1,416(a4)
    80002808:	1a873907          	fld	fs2,424(a4)
    8000280c:	1b073f07          	fld	ft10,432(a4)
    80002810:	19073987          	fld	fs3,400(a4)
    80002814:	19873f87          	fld	ft11,408(a4)
    80002818:	da90fdc3          	fmadd.d	fs11,ft1,fs1,fs11
    8000281c:	3b30f3c3          	fmadd.d	ft7,ft1,fs3,ft7
    80002820:	ebfe7ec3          	fmadd.d	ft9,ft8,ft11,ft9
    80002824:	83f0f843          	fmadd.d	fa6,ft1,ft11,fa6
    80002828:	d320fd43          	fmadd.d	fs10,ft1,fs2,fs10
    8000282c:	cb307cc3          	fmadd.d	fs9,ft0,fs3,fs9
    80002830:	6be0f0c3          	fmadd.d	ft1,ft1,ft10,fa3
    80002834:	c3f07c43          	fmadd.d	fs8,ft0,ft11,fs8
    80002838:	ba907bc3          	fmadd.d	fs7,ft0,fs1,fs7
    8000283c:	33207343          	fmadd.d	ft6,ft0,fs2,ft6
    80002840:	2b3672c3          	fmadd.d	ft5,fa2,fs3,ft5
    80002844:	73e07043          	fmadd.d	ft0,ft0,ft10,fa4
    80002848:	23f67243          	fmadd.d	ft4,fa2,ft11,ft4
    8000284c:	52967543          	fmadd.d	fa0,fa2,fs1,fa0
    80002850:	5b2675c3          	fmadd.d	fa1,fa2,fs2,fa1
    80002854:	8b3e79c3          	fmadd.d	fs3,ft8,fs3,fa7
    80002858:	7be67643          	fmadd.d	fa2,fa2,ft10,fa5
    8000285c:	429e7443          	fmadd.d	fs0,ft8,fs1,fs0
    80002860:	1b2e71c3          	fmadd.d	ft3,ft8,fs2,ft3
    80002864:	13ee7143          	fmadd.d	ft2,ft8,ft10,ft2
    80002868:	2e14                	fld	fa3,24(a2)
    8000286a:	25873f07          	fld	ft10,600(a4)
    8000286e:	26873a87          	fld	fs5,616(a4)
    80002872:	27073a07          	fld	fs4,624(a4)
    80002876:	26073b07          	fld	fs6,608(a4)
    8000287a:	27873f87          	fld	ft11,632(a4)
    8000287e:	2e78                	fld	fa4,216(a2)
    80002880:	19863787          	fld	fa5,408(a2)
    80002884:	25863e07          	fld	ft8,600(a2)
    80002888:	3be6f3c3          	fmadd.d	ft7,fa3,ft10,ft7
    8000288c:	8366f843          	fmadd.d	fa6,fa3,fs6,fa6
    80002890:	435e7443          	fmadd.d	fs0,ft8,fs5,fs0
    80002894:	1b4e71c3          	fmadd.d	ft3,ft8,fs4,ft3
    80002898:	db56fdc3          	fmadd.d	fs11,fa3,fs5,fs11
    8000289c:	d346fd43          	fmadd.d	fs10,fa3,fs4,fs10
    800028a0:	0bf6f0c3          	fmadd.d	ft1,fa3,ft11,ft1
    800028a4:	cbe77cc3          	fmadd.d	fs9,fa4,ft10,fs9
    800028a8:	c3677c43          	fmadd.d	fs8,fa4,fs6,fs8
    800028ac:	bb577bc3          	fmadd.d	fs7,fa4,fs5,fs7
    800028b0:	33477343          	fmadd.d	ft6,fa4,fs4,ft6
    800028b4:	03f77043          	fmadd.d	ft0,fa4,ft11,ft0
    800028b8:	2be7f2c3          	fmadd.d	ft5,fa5,ft10,ft5
    800028bc:	2367f243          	fmadd.d	ft4,fa5,fs6,ft4
    800028c0:	5357f543          	fmadd.d	fa0,fa5,fs5,fa0
    800028c4:	5b47f5c3          	fmadd.d	fa1,fa5,fs4,fa1
    800028c8:	63f7f643          	fmadd.d	fa2,fa5,ft11,fa2
    800028cc:	9bee79c3          	fmadd.d	fs3,ft8,ft10,fs3
    800028d0:	eb6e7b43          	fmadd.d	fs6,ft8,fs6,ft9
    800028d4:	13fe7143          	fmadd.d	ft2,ft8,ft11,ft2
    800028d8:	3214                	fld	fa3,32(a2)
    800028da:	3278                	fld	fa4,224(a2)
    800028dc:	1a063787          	fld	fa5,416(a2)
    800028e0:	26063e07          	fld	ft8,608(a2)
    800028e4:	34073887          	fld	fa7,832(a4)
    800028e8:	32073f07          	fld	ft10,800(a4)
    800028ec:	32873f87          	fld	ft11,808(a4)
    800028f0:	33073487          	fld	fs1,816(a4)
    800028f4:	33873907          	fld	fs2,824(a4)
    800028f8:	3be6f3c3          	fmadd.d	ft7,fa3,ft10,ft7
    800028fc:	da96fdc3          	fmadd.d	fs11,fa3,fs1,fs11
    80002900:	d326fd43          	fmadd.d	fs10,fa3,fs2,fs10
    80002904:	0b16f0c3          	fmadd.d	ft1,fa3,fa7,ft1
    80002908:	cbe77cc3          	fmadd.d	fs9,fa4,ft10,fs9
    8000290c:	ba977bc3          	fmadd.d	fs7,fa4,fs1,fs7
    80002910:	33277343          	fmadd.d	ft6,fa4,fs2,ft6
    80002914:	03177043          	fmadd.d	ft0,fa4,fa7,ft0
    80002918:	2be7f2c3          	fmadd.d	ft5,fa5,ft10,ft5
    8000291c:	5297f543          	fmadd.d	fa0,fa5,fs1,fa0
    80002920:	5b27f5c3          	fmadd.d	fa1,fa5,fs2,fa1
    80002924:	6317f643          	fmadd.d	fa2,fa5,fa7,fa2
    80002928:	83f6f843          	fmadd.d	fa6,fa3,ft11,fa6
    8000292c:	c3f77c43          	fmadd.d	fs8,fa4,ft11,fs8
    80002930:	23f7f243          	fmadd.d	ft4,fa5,ft11,ft4
    80002934:	429e74c3          	fmadd.d	fs1,ft8,fs1,fs0
    80002938:	1b2e7943          	fmadd.d	fs2,ft8,fs2,ft3
    8000293c:	131e7143          	fmadd.d	ft2,ft8,fa7,ft2
    80002940:	9bee7f43          	fmadd.d	ft10,ft8,ft10,fs3
    80002944:	b3fe7b43          	fmadd.d	fs6,ft8,ft11,fs6
    80002948:	3614                	fld	fa3,40(a2)
    8000294a:	3678                	fld	fa4,232(a2)
    8000294c:	1a863787          	fld	fa5,424(a2)
    80002950:	26863a07          	fld	fs4,616(a2)
    80002954:	3e873887          	fld	fa7,1000(a4)
    80002958:	3f073e87          	fld	ft9,1008(a4)
    8000295c:	3f873407          	fld	fs0,1016(a4)
    80002960:	40073187          	fld	ft3,1024(a4)
    80002964:	40873a87          	fld	fs5,1032(a4)
    80002968:	4b070713          	addi	a4,a4,1200
    8000296c:	d236fd43          	fmadd.d	fs10,fa3,ft3,fs10
    80002970:	32377343          	fmadd.d	ft6,fa4,ft3,ft6
    80002974:	5a37f5c3          	fmadd.d	fa1,fa5,ft3,fa1
    80002978:	3b16f3c3          	fmadd.d	ft7,fa3,fa7,ft7
    8000297c:	83d6f843          	fmadd.d	fa6,fa3,ft9,fa6
    80002980:	da86fdc3          	fmadd.d	fs11,fa3,fs0,fs11
    80002984:	cb177cc3          	fmadd.d	fs9,fa4,fa7,fs9
    80002988:	c3d77c43          	fmadd.d	fs8,fa4,ft9,fs8
    8000298c:	ba877bc3          	fmadd.d	fs7,fa4,fs0,fs7
    80002990:	2b17f2c3          	fmadd.d	ft5,fa5,fa7,ft5
    80002994:	23d7f243          	fmadd.d	ft4,fa5,ft9,ft4
    80002998:	5287f543          	fmadd.d	fa0,fa5,fs0,fa0
    8000299c:	f31a7f43          	fmadd.d	ft10,fs4,fa7,ft10
    800029a0:	b3da7b43          	fmadd.d	fs6,fs4,ft9,fs6
    800029a4:	4a8a74c3          	fmadd.d	fs1,fs4,fs0,fs1
    800029a8:	923a71c3          	fmadd.d	ft3,fs4,ft3,fs2
    800029ac:	0b56f6c3          	fmadd.d	fa3,fa3,fs5,ft1
    800029b0:	03577743          	fmadd.d	fa4,fa4,fs5,ft0
    800029b4:	6357f7c3          	fmadd.d	fa5,fa5,fs5,fa2
    800029b8:	135a7a43          	fmadd.d	fs4,fs4,fs5,ft2
    800029bc:	03060613          	addi	a2,a2,48
    800029c0:	d4d718e3          	bne	a4,a3,80002710 <mm_cb+0x5c0>
    800029c4:	0077b027          	fsd	ft7,0(a5)
    800029c8:	0107b427          	fsd	fa6,8(a5)
    800029cc:	01b7b827          	fsd	fs11,16(a5)
    800029d0:	01a7bc27          	fsd	fs10,24(a5)
    800029d4:	b394                	fsd	fa3,32(a5)
    800029d6:	0d97b427          	fsd	fs9,200(a5)
    800029da:	0d87b827          	fsd	fs8,208(a5)
    800029de:	0d77bc27          	fsd	fs7,216(a5)
    800029e2:	0e67b027          	fsd	ft6,224(a5)
    800029e6:	b7f8                	fsd	fa4,232(a5)
    800029e8:	1857b827          	fsd	ft5,400(a5)
    800029ec:	1847bc27          	fsd	ft4,408(a5)
    800029f0:	1aa7b027          	fsd	fa0,416(a5)
    800029f4:	1ab7b427          	fsd	fa1,424(a5)
    800029f8:	1af7b827          	fsd	fa5,432(a5)
    800029fc:	25e7bc27          	fsd	ft10,600(a5)
    80002a00:	2767b027          	fsd	fs6,608(a5)
    80002a04:	2697b427          	fsd	fs1,616(a5)
    80002a08:	2637b827          	fsd	ft3,624(a5)
    80002a0c:	2747bc27          	fsd	fs4,632(a5)
    80002a10:	02870693          	addi	a3,a4,40
    80002a14:	02878793          	addi	a5,a5,40
    80002a18:	c8da1de3          	bne	s4,a3,800026b2 <mm_cb+0x562>
    80002a1c:	47e5                	li	a5,25
    80002a1e:	88de                	mv	a7,s7
    80002a20:	86ee                	mv	a3,s11
    80002a22:	e03e                	sd	a5,0(sp)
    80002a24:	4865                	li	a6,25
    80002a26:	87e6                	mv	a5,s9
    80002a28:	4761                	li	a4,24
    80002a2a:	4661                	li	a2,24
    80002a2c:	4581                	li	a1,0
    80002a2e:	4511                	li	a0,4
    80002a30:	dd0ff0ef          	jal	ra,80002000 <mm_naive>
    80002a34:	064b0b13          	addi	s6,s6,100
    80002a38:	25800793          	li	a5,600
    80002a3c:	300d8d93          	addi	s11,s11,768
    80002a40:	320b8b93          	addi	s7,s7,800
    80002a44:	c6fb14e3          	bne	s6,a5,800026ac <mm_cb+0x55c>
    80002a48:	e9843483          	ld	s1,-360(s0)
    80002a4c:	e0043883          	ld	a7,-512(s0)
    80002a50:	6685                	lui	a3,0x1
    80002a52:	47e5                	li	a5,25
    80002a54:	20068693          	addi	a3,a3,512 # 1200 <buflen.1+0x1180>
    80002a58:	e03e                	sd	a5,0(sp)
    80002a5a:	4865                	li	a6,25
    80002a5c:	87ca                	mv	a5,s2
    80002a5e:	4761                	li	a4,24
    80002a60:	96ce                	add	a3,a3,s3
    80002a62:	4661                	li	a2,24
    80002a64:	45e5                	li	a1,25
    80002a66:	4501                	li	a0,0
    80002a68:	04e1                	addi	s1,s1,24
    80002a6a:	e8943c23          	sd	s1,-360(s0)
    80002a6e:	d92ff0ef          	jal	ra,80002000 <mm_naive>
    80002a72:	f0843783          	ld	a5,-248(s0)
    80002a76:	bcf4eee3          	bltu	s1,a5,80002652 <mm_cb+0x502>
    80002a7a:	db043b83          	ld	s7,-592(s0)
    80002a7e:	da843b03          	ld	s6,-600(s0)
    80002a82:	da043a03          	ld	s4,-608(s0)
    80002a86:	d9843983          	ld	s3,-616(s0)
    80002a8a:	e9043783          	ld	a5,-368(s0)
    80002a8e:	f0843703          	ld	a4,-248(s0)
    80002a92:	0c878e93          	addi	t4,a5,200
    80002a96:	f1843783          	ld	a5,-232(s0)
    80002a9a:	5cf76d63          	bltu	a4,a5,80003074 <mm_cb+0xf24>
    80002a9e:	ec843783          	ld	a5,-312(s0)
    80002aa2:	ef843703          	ld	a4,-264(s0)
    80002aa6:	e9d43823          	sd	t4,-368(s0)
    80002aaa:	07e5                	addi	a5,a5,25
    80002aac:	ecf43423          	sd	a5,-312(s0)
    80002ab0:	b4e7e8e3          	bltu	a5,a4,80002600 <mm_cb+0x4b0>
    80002ab4:	ed843783          	ld	a5,-296(s0)
    80002ab8:	ef843703          	ld	a4,-264(s0)
    80002abc:	e2043c83          	ld	s9,-480(s0)
    80002ac0:	82ce                	mv	t0,s3
    80002ac2:	30f771e3          	bgeu	a4,a5,800035c4 <mm_cb+0x1474>
    80002ac6:	f1843783          	ld	a5,-232(s0)
    80002aca:	2e078de3          	beqz	a5,800035c4 <mm_cb+0x1474>
    80002ace:	ee043703          	ld	a4,-288(s0)
    80002ad2:	eb043783          	ld	a5,-336(s0)
    80002ad6:	de043d83          	ld	s11,-544(s0)
    80002ada:	8496                	mv	s1,t0
    80002adc:	97ba                	add	a5,a5,a4
    80002ade:	ecf43423          	sd	a5,-312(s0)
    80002ae2:	ee843703          	ld	a4,-280(s0)
    80002ae6:	dc843783          	ld	a5,-568(s0)
    80002aea:	ee043423          	sd	zero,-280(s0)
    80002aee:	8fee                	mv	t6,s11
    80002af0:	97ba                	add	a5,a5,a4
    80002af2:	e8f43c23          	sd	a5,-360(s0)
    80002af6:	f1843783          	ld	a5,-232(s0)
    80002afa:	ee843703          	ld	a4,-280(s0)
    80002afe:	40e782b3          	sub	t0,a5,a4
    80002b02:	47e1                	li	a5,24
    80002b04:	0057f363          	bgeu	a5,t0,80002b0a <mm_cb+0x9ba>
    80002b08:	42e1                	li	t0,24
    80002b0a:	4799                	li	a5,6
    80002b0c:	02f2d7b3          	divu	a5,t0,a5
    80002b10:	e3043703          	ld	a4,-464(s0)
    80002b14:	ee043383          	ld	t2,-288(s0)
    80002b18:	00329993          	slli	s3,t0,0x3
    80002b1c:	977e                	add	a4,a4,t6
    80002b1e:	e2e43023          	sd	a4,-480(s0)
    80002b22:	e9843703          	ld	a4,-360(s0)
    80002b26:	4699                	li	a3,6
    80002b28:	e8d43823          	sd	a3,-368(s0)
    80002b2c:	99ba                	add	s3,s3,a4
    80002b2e:	8dba                	mv	s11,a4
    80002b30:	00179913          	slli	s2,a5,0x1
    80002b34:	993e                	add	s2,s2,a5
    80002b36:	02fa07b3          	mul	a5,s4,a5
    80002b3a:	0912                	slli	s2,s2,0x4
    80002b3c:	993a                	add	s2,s2,a4
    80002b3e:	e6f43423          	sd	a5,-408(s0)
    80002b42:	ec043783          	ld	a5,-320(s0)
    80002b46:	46078b63          	beqz	a5,80002fbc <mm_cb+0xe6c>
    80002b4a:	ef043783          	ld	a5,-272(s0)
    80002b4e:	e6843083          	ld	ra,-408(s0)
    80002b52:	8efe                	mv	t4,t6
    80002b54:	00778833          	add	a6,a5,t2
    80002b58:	01078533          	add	a0,a5,a6
    80002b5c:	00a78333          	add	t1,a5,a0
    80002b60:	889e                	mv	a7,t2
    80002b62:	4f01                	li	t5,0
    80002b64:	0008be07          	fld	ft8,0(a7)
    80002b68:	0088b407          	fld	fs0,8(a7)
    80002b6c:	0108bf87          	fld	ft11,16(a7)
    80002b70:	0188bf07          	fld	ft10,24(a7)
    80002b74:	0208b007          	fld	ft0,32(a7)
    80002b78:	00083e87          	fld	ft9,0(a6)
    80002b7c:	00883887          	fld	fa7,8(a6)
    80002b80:	01083807          	fld	fa6,16(a6)
    80002b84:	01883387          	fld	ft7,24(a6)
    80002b88:	02083587          	fld	fa1,32(a6)
    80002b8c:	00053187          	fld	ft3,0(a0) # ffffffffffffe000 <__global_pointer$+0xffffffff7fff8870>
    80002b90:	00853307          	fld	ft6,8(a0)
    80002b94:	01053287          	fld	ft5,16(a0)
    80002b98:	01853207          	fld	ft4,24(a0)
    80002b9c:	3118                	fld	fa4,32(a0)
    80002b9e:	00033507          	fld	fa0,0(t1)
    80002ba2:	00833107          	fld	ft2,8(t1)
    80002ba6:	01033087          	fld	ft1,16(t1)
    80002baa:	01833607          	fld	fa2,24(t1)
    80002bae:	02033787          	fld	fa5,32(t1)
    80002bb2:	87f6                	mv	a5,t4
    80002bb4:	312df763          	bgeu	s11,s2,80002ec2 <mm_cb+0xd72>
    80002bb8:	22c60c53          	fmv.d	fs8,fa2
    80002bbc:	22f78bd3          	fmv.d	fs7,fa5
    80002bc0:	22420653          	fmv.d	fa2,ft4
    80002bc4:	01bd0633          	add	a2,s10,s11
    80002bc8:	23de8253          	fmv.d	ft4,ft9
    80002bcc:	23ff87d3          	fmv.d	fa5,ft11
    80002bd0:	23ef0ed3          	fmv.d	ft9,ft10
    80002bd4:	00cd06b3          	add	a3,s10,a2
    80002bd8:	00dd05b3          	add	a1,s10,a3
    80002bdc:	876e                	mv	a4,s11
    80002bde:	00073d07          	fld	fs10,0(a4)
    80002be2:	00063a87          	fld	fs5,0(a2)
    80002be6:	2284                	fld	fs1,0(a3)
    80002be8:	2194                	fld	fa3,0(a1)
    80002bea:	0007bc87          	fld	fs9,0(a5)
    80002bee:	0087bb07          	fld	fs6,8(a5)
    80002bf2:	0107b987          	fld	fs3,16(a5)
    80002bf6:	0207ba07          	fld	fs4,32(a5)
    80002bfa:	0187b907          	fld	fs2,24(a5)
    80002bfe:	e39d7e43          	fmadd.d	ft8,fs10,fs9,ft8
    80002c02:	436d7443          	fmadd.d	fs0,fs10,fs6,fs0
    80002c06:	7b3d77c3          	fmadd.d	fa5,fs10,fs3,fa5
    80002c0a:	eb2d7ec3          	fmadd.d	ft9,fs10,fs2,ft9
    80002c0e:	034d7043          	fmadd.d	ft0,fs10,fs4,ft0
    80002c12:	239af243          	fmadd.d	ft4,fs5,fs9,ft4
    80002c16:	8b6af8c3          	fmadd.d	fa7,fs5,fs6,fa7
    80002c1a:	833af843          	fmadd.d	fa6,fs5,fs3,fa6
    80002c1e:	3b2af3c3          	fmadd.d	ft7,fs5,fs2,ft7
    80002c22:	5b4af5c3          	fmadd.d	fa1,fs5,fs4,fa1
    80002c26:	3364f343          	fmadd.d	ft6,fs1,fs6,ft6
    80002c2a:	1b94fac3          	fmadd.d	fs5,fs1,fs9,ft3
    80002c2e:	2b34f2c3          	fmadd.d	ft5,fs1,fs3,ft5
    80002c32:	6324f643          	fmadd.d	fa2,fs1,fs2,fa2
    80002c36:	5396f543          	fmadd.d	fa0,fa3,fs9,fa0
    80002c3a:	7344f4c3          	fmadd.d	fs1,fs1,fs4,fa4
    80002c3e:	1366f143          	fmadd.d	ft2,fa3,fs6,ft2
    80002c42:	0b36f0c3          	fmadd.d	ft1,fa3,fs3,ft1
    80002c46:	c326f943          	fmadd.d	fs2,fa3,fs2,fs8
    80002c4a:	bb46f6c3          	fmadd.d	fa3,fa3,fs4,fs7
    80002c4e:	00978e33          	add	t3,a5,s1
    80002c52:	00873f87          	fld	ft11,8(a4)
    80002c56:	00863f07          	fld	ft10,8(a2)
    80002c5a:	0086b187          	fld	ft3,8(a3)
    80002c5e:	2598                	fld	fa4,8(a1)
    80002c60:	000e3c07          	fld	fs8,0(t3)
    80002c64:	008e3b87          	fld	fs7,8(t3)
    80002c68:	010e3b07          	fld	fs6,16(t3)
    80002c6c:	018e3a07          	fld	fs4,24(t3)
    80002c70:	020e3987          	fld	fs3,32(t3)
    80002c74:	e38ffe43          	fmadd.d	ft8,ft11,fs8,ft8
    80002c78:	437ff443          	fmadd.d	fs0,ft11,fs7,fs0
    80002c7c:	7b6ff7c3          	fmadd.d	fa5,ft11,fs6,fa5
    80002c80:	eb4ffec3          	fmadd.d	ft9,ft11,fs4,ft9
    80002c84:	033ff043          	fmadd.d	ft0,ft11,fs3,ft0
    80002c88:	238f7243          	fmadd.d	ft4,ft10,fs8,ft4
    80002c8c:	8b7f78c3          	fmadd.d	fa7,ft10,fs7,fa7
    80002c90:	836f7843          	fmadd.d	fa6,ft10,fs6,fa6
    80002c94:	3b4f73c3          	fmadd.d	ft7,ft10,fs4,ft7
    80002c98:	5b3f75c3          	fmadd.d	fa1,ft10,fs3,fa1
    80002c9c:	ab81fac3          	fmadd.d	fs5,ft3,fs8,fs5
    80002ca0:	3371f343          	fmadd.d	ft6,ft3,fs7,ft6
    80002ca4:	2b61f2c3          	fmadd.d	ft5,ft3,fs6,ft5
    80002ca8:	6341f643          	fmadd.d	fa2,ft3,fs4,fa2
    80002cac:	53877543          	fmadd.d	fa0,fa4,fs8,fa0
    80002cb0:	4b31f1c3          	fmadd.d	ft3,ft3,fs3,fs1
    80002cb4:	13777143          	fmadd.d	ft2,fa4,fs7,ft2
    80002cb8:	0b6770c3          	fmadd.d	ft1,fa4,fs6,ft1
    80002cbc:	93477943          	fmadd.d	fs2,fa4,fs4,fs2
    80002cc0:	6b377743          	fmadd.d	fa4,fa4,fs3,fa3
    80002cc4:	00fc8e33          	add	t3,s9,a5
    80002cc8:	01073c07          	fld	fs8,16(a4)
    80002ccc:	2a14                	fld	fa3,16(a2)
    80002cce:	2a84                	fld	fs1,16(a3)
    80002cd0:	0105bf07          	fld	ft10,16(a1)
    80002cd4:	000e3b87          	fld	fs7,0(t3)
    80002cd8:	008e3b07          	fld	fs6,8(t3)
    80002cdc:	010e3a07          	fld	fs4,16(t3)
    80002ce0:	018e3987          	fld	fs3,24(t3)
    80002ce4:	020e3f87          	fld	ft11,32(t3)
    80002ce8:	e37c7e43          	fmadd.d	ft8,fs8,fs7,ft8
    80002cec:	933f7943          	fmadd.d	fs2,ft10,fs3,fs2
    80002cf0:	73ff7743          	fmadd.d	fa4,ft10,ft11,fa4
    80002cf4:	436c7443          	fmadd.d	fs0,fs8,fs6,fs0
    80002cf8:	7b4c77c3          	fmadd.d	fa5,fs8,fs4,fa5
    80002cfc:	eb3c7ec3          	fmadd.d	ft9,fs8,fs3,ft9
    80002d00:	03fc7043          	fmadd.d	ft0,fs8,ft11,ft0
    80002d04:	2376f243          	fmadd.d	ft4,fa3,fs7,ft4
    80002d08:	8b66f8c3          	fmadd.d	fa7,fa3,fs6,fa7
    80002d0c:	8346f843          	fmadd.d	fa6,fa3,fs4,fa6
    80002d10:	3b36f3c3          	fmadd.d	ft7,fa3,fs3,ft7
    80002d14:	5bf6f5c3          	fmadd.d	fa1,fa3,ft11,fa1
    80002d18:	ab74fac3          	fmadd.d	fs5,fs1,fs7,fs5
    80002d1c:	3364f343          	fmadd.d	ft6,fs1,fs6,ft6
    80002d20:	2b44f2c3          	fmadd.d	ft5,fs1,fs4,ft5
    80002d24:	6334f643          	fmadd.d	fa2,fs1,fs3,fa2
    80002d28:	537f7543          	fmadd.d	fa0,ft10,fs7,fa0
    80002d2c:	1bf4f4c3          	fmadd.d	fs1,fs1,ft11,ft3
    80002d30:	136f7143          	fmadd.d	ft2,ft10,fs6,ft2
    80002d34:	0b4f70c3          	fmadd.d	ft1,ft10,fs4,ft1
    80002d38:	01878e33          	add	t3,a5,s8
    80002d3c:	01873c07          	fld	fs8,24(a4)
    80002d40:	000e3b07          	fld	fs6,0(t3)
    80002d44:	008e3a07          	fld	fs4,8(t3)
    80002d48:	010e3987          	fld	fs3,16(t3)
    80002d4c:	018e3f87          	fld	ft11,24(t3)
    80002d50:	020e3f07          	fld	ft10,32(t3)
    80002d54:	2e14                	fld	fa3,24(a2)
    80002d56:	0186b187          	fld	ft3,24(a3)
    80002d5a:	0185bb87          	fld	fs7,24(a1)
    80002d5e:	e36c7e43          	fmadd.d	ft8,fs8,fs6,ft8
    80002d62:	434c7443          	fmadd.d	fs0,fs8,fs4,fs0
    80002d66:	536bf543          	fmadd.d	fa0,fs7,fs6,fa0
    80002d6a:	134bf143          	fmadd.d	ft2,fs7,fs4,ft2
    80002d6e:	0b3bf0c3          	fmadd.d	ft1,fs7,fs3,ft1
    80002d72:	7b3c77c3          	fmadd.d	fa5,fs8,fs3,fa5
    80002d76:	ebfc7ec3          	fmadd.d	ft9,fs8,ft11,ft9
    80002d7a:	2366f243          	fmadd.d	ft4,fa3,fs6,ft4
    80002d7e:	8b46f8c3          	fmadd.d	fa7,fa3,fs4,fa7
    80002d82:	8336f843          	fmadd.d	fa6,fa3,fs3,fa6
    80002d86:	3bf6f3c3          	fmadd.d	ft7,fa3,ft11,ft7
    80002d8a:	5be6f5c3          	fmadd.d	fa1,fa3,ft10,fa1
    80002d8e:	ab61fac3          	fmadd.d	fs5,ft3,fs6,fs5
    80002d92:	3341f343          	fmadd.d	ft6,ft3,fs4,ft6
    80002d96:	2b31f2c3          	fmadd.d	ft5,ft3,fs3,ft5
    80002d9a:	63f1f643          	fmadd.d	fa2,ft3,ft11,fa2
    80002d9e:	03ec7043          	fmadd.d	ft0,fs8,ft10,ft0
    80002da2:	4be1f1c3          	fmadd.d	ft3,ft3,ft10,fs1
    80002da6:	93fbffc3          	fmadd.d	ft11,fs7,ft11,fs2
    80002daa:	73ebfbc3          	fmadd.d	fs7,fs7,ft10,fa4
    80002dae:	00fb8e33          	add	t3,s7,a5
    80002db2:	3304                	fld	fs1,32(a4)
    80002db4:	3298                	fld	fa4,32(a3)
    80002db6:	3214                	fld	fa3,32(a2)
    80002db8:	0205bd07          	fld	fs10,32(a1)
    80002dbc:	020e3907          	fld	fs2,32(t3)
    80002dc0:	000e3b07          	fld	fs6,0(t3)
    80002dc4:	008e3d87          	fld	fs11,8(t3)
    80002dc8:	010e3c87          	fld	fs9,16(t3)
    80002dcc:	018e3c07          	fld	fs8,24(t3)
    80002dd0:	e364fe43          	fmadd.d	ft8,fs1,fs6,ft8
    80002dd4:	43b4f443          	fmadd.d	fs0,fs1,fs11,fs0
    80002dd8:	7b94f7c3          	fmadd.d	fa5,fs1,fs9,fa5
    80002ddc:	eb84fec3          	fmadd.d	ft9,fs1,fs8,ft9
    80002de0:	0324f043          	fmadd.d	ft0,fs1,fs2,ft0
    80002de4:	2366f243          	fmadd.d	ft4,fa3,fs6,ft4
    80002de8:	1b2774c3          	fmadd.d	fs1,fa4,fs2,ft3
    80002dec:	8bb6f8c3          	fmadd.d	fa7,fa3,fs11,fa7
    80002df0:	8396f843          	fmadd.d	fa6,fa3,fs9,fa6
    80002df4:	3b86f3c3          	fmadd.d	ft7,fa3,fs8,ft7
    80002df8:	ab677ac3          	fmadd.d	fs5,fa4,fs6,fs5
    80002dfc:	5b26f6c3          	fmadd.d	fa3,fa3,fs2,fa1
    80002e00:	33b77343          	fmadd.d	ft6,fa4,fs11,ft6
    80002e04:	2b9772c3          	fmadd.d	ft5,fa4,fs9,ft5
    80002e08:	63877643          	fmadd.d	fa2,fa4,fs8,fa2
    80002e0c:	536d7b43          	fmadd.d	fs6,fs10,fs6,fa0
    80002e10:	13bd7dc3          	fmadd.d	fs11,fs10,fs11,ft2
    80002e14:	0b9d7cc3          	fmadd.d	fs9,fs10,fs9,ft1
    80002e18:	bb2d7bc3          	fmadd.d	fs7,fs10,fs2,fs7
    80002e1c:	fb8d7c43          	fmadd.d	fs8,fs10,fs8,ft11
    80002e20:	01678e33          	add	t3,a5,s6
    80002e24:	02873187          	fld	ft3,40(a4)
    80002e28:	360c                	fld	fa1,40(a2)
    80002e2a:	3698                	fld	fa4,40(a3)
    80002e2c:	0285ba07          	fld	fs4,40(a1)
    80002e30:	000e3507          	fld	fa0,0(t3)
    80002e34:	008e3107          	fld	ft2,8(t3)
    80002e38:	010e3087          	fld	ft1,16(t3)
    80002e3c:	018e3907          	fld	fs2,24(t3)
    80002e40:	020e3987          	fld	fs3,32(t3)
    80002e44:	03070713          	addi	a4,a4,48
    80002e48:	e2a1fe43          	fmadd.d	ft8,ft3,fa0,ft8
    80002e4c:	4221f443          	fmadd.d	fs0,ft3,ft2,fs0
    80002e50:	7a11f7c3          	fmadd.d	fa5,ft3,ft1,fa5
    80002e54:	22a5f243          	fmadd.d	ft4,fa1,fa0,ft4
    80002e58:	8a25f8c3          	fmadd.d	fa7,fa1,ft2,fa7
    80002e5c:	8215f843          	fmadd.d	fa6,fa1,ft1,fa6
    80002e60:	32277343          	fmadd.d	ft6,fa4,ft2,ft6
    80002e64:	2a1772c3          	fmadd.d	ft5,fa4,ft1,ft5
    80002e68:	eb21fec3          	fmadd.d	ft9,ft3,fs2,ft9
    80002e6c:	0331f043          	fmadd.d	ft0,ft3,fs3,ft0
    80002e70:	3b25f3c3          	fmadd.d	ft7,fa1,fs2,ft7
    80002e74:	aaa771c3          	fmadd.d	ft3,fa4,fa0,fs5
    80002e78:	63277643          	fmadd.d	fa2,fa4,fs2,fa2
    80002e7c:	6b35f5c3          	fmadd.d	fa1,fa1,fs3,fa3
    80002e80:	4b377743          	fmadd.d	fa4,fa4,fs3,fs1
    80002e84:	b2aa7543          	fmadd.d	fa0,fs4,fa0,fs6
    80002e88:	da2a7143          	fmadd.d	ft2,fs4,ft2,fs11
    80002e8c:	ca1a70c3          	fmadd.d	ft1,fs4,ft1,fs9
    80002e90:	c32a7c43          	fmadd.d	fs8,fs4,fs2,fs8
    80002e94:	bb3a7bc3          	fmadd.d	fs7,fs4,fs3,fs7
    80002e98:	97d2                	add	a5,a5,s4
    80002e9a:	03060613          	addi	a2,a2,48
    80002e9e:	03068693          	addi	a3,a3,48
    80002ea2:	03058593          	addi	a1,a1,48
    80002ea6:	d3276ce3          	bltu	a4,s2,80002bde <mm_cb+0xa8e>
    80002eaa:	22f78fd3          	fmv.d	ft11,fa5
    80002eae:	23de8f53          	fmv.d	ft10,ft9
    80002eb2:	237b87d3          	fmv.d	fa5,fs7
    80002eb6:	22420ed3          	fmv.d	ft9,ft4
    80002eba:	22c60253          	fmv.d	ft4,fa2
    80002ebe:	238c0653          	fmv.d	fa2,fs8
    80002ec2:	01d087b3          	add	a5,ra,t4
    80002ec6:	09397563          	bgeu	s2,s3,80002f50 <mm_cb+0xe00>
    80002eca:	874a                	mv	a4,s2
    80002ecc:	01a705b3          	add	a1,a4,s10
    80002ed0:	01a58633          	add	a2,a1,s10
    80002ed4:	01a606b3          	add	a3,a2,s10
    80002ed8:	00073987          	fld	fs3,0(a4)
    80002edc:	0007bc07          	fld	fs8,0(a5)
    80002ee0:	0087bb87          	fld	fs7,8(a5)
    80002ee4:	0107bb07          	fld	fs6,16(a5)
    80002ee8:	0187ba87          	fld	fs5,24(a5)
    80002eec:	0207ba07          	fld	fs4,32(a5)
    80002ef0:	0005b907          	fld	fs2,0(a1)
    80002ef4:	2204                	fld	fs1,0(a2)
    80002ef6:	2294                	fld	fa3,0(a3)
    80002ef8:	0721                	addi	a4,a4,8
    80002efa:	e389fe43          	fmadd.d	ft8,fs3,fs8,ft8
    80002efe:	4379f443          	fmadd.d	fs0,fs3,fs7,fs0
    80002f02:	fb69ffc3          	fmadd.d	ft11,fs3,fs6,ft11
    80002f06:	f359ff43          	fmadd.d	ft10,fs3,fs5,ft10
    80002f0a:	0349f043          	fmadd.d	ft0,fs3,fs4,ft0
    80002f0e:	eb897ec3          	fmadd.d	ft9,fs2,fs8,ft9
    80002f12:	8b7978c3          	fmadd.d	fa7,fs2,fs7,fa7
    80002f16:	83697843          	fmadd.d	fa6,fs2,fs6,fa6
    80002f1a:	3b5973c3          	fmadd.d	ft7,fs2,fs5,ft7
    80002f1e:	5b4975c3          	fmadd.d	fa1,fs2,fs4,fa1
    80002f22:	1b84f1c3          	fmadd.d	ft3,fs1,fs8,ft3
    80002f26:	3374f343          	fmadd.d	ft6,fs1,fs7,ft6
    80002f2a:	2b64f2c3          	fmadd.d	ft5,fs1,fs6,ft5
    80002f2e:	2354f243          	fmadd.d	ft4,fs1,fs5,ft4
    80002f32:	7344f743          	fmadd.d	fa4,fs1,fs4,fa4
    80002f36:	5386f543          	fmadd.d	fa0,fa3,fs8,fa0
    80002f3a:	1376f143          	fmadd.d	ft2,fa3,fs7,ft2
    80002f3e:	0b66f0c3          	fmadd.d	ft1,fa3,fs6,ft1
    80002f42:	6356f643          	fmadd.d	fa2,fa3,fs5,fa2
    80002f46:	7b46f7c3          	fmadd.d	fa5,fa3,fs4,fa5
    80002f4a:	97a6                	add	a5,a5,s1
    80002f4c:	f93760e3          	bltu	a4,s3,80002ecc <mm_cb+0xd7c>
    80002f50:	01c8b027          	fsd	ft8,0(a7)
    80002f54:	0088b427          	fsd	fs0,8(a7)
    80002f58:	01f8b827          	fsd	ft11,16(a7)
    80002f5c:	01e8bc27          	fsd	ft10,24(a7)
    80002f60:	0208b027          	fsd	ft0,32(a7)
    80002f64:	01d83027          	fsd	ft9,0(a6)
    80002f68:	01183427          	fsd	fa7,8(a6)
    80002f6c:	01083827          	fsd	fa6,16(a6)
    80002f70:	00783c27          	fsd	ft7,24(a6)
    80002f74:	02b83027          	fsd	fa1,32(a6)
    80002f78:	ec043783          	ld	a5,-320(s0)
    80002f7c:	00353027          	fsd	ft3,0(a0)
    80002f80:	00653427          	fsd	ft6,8(a0)
    80002f84:	00553827          	fsd	ft5,16(a0)
    80002f88:	00453c27          	fsd	ft4,24(a0)
    80002f8c:	b118                	fsd	fa4,32(a0)
    80002f8e:	00a33027          	fsd	fa0,0(t1)
    80002f92:	00233427          	fsd	ft2,8(t1)
    80002f96:	00133827          	fsd	ft1,16(t1)
    80002f9a:	00c33c27          	fsd	fa2,24(t1)
    80002f9e:	02f33027          	fsd	fa5,32(t1)
    80002fa2:	0f15                	addi	t5,t5,5
    80002fa4:	02888893          	addi	a7,a7,40
    80002fa8:	02880813          	addi	a6,a6,40
    80002fac:	02850513          	addi	a0,a0,40
    80002fb0:	02830313          	addi	t1,t1,40
    80002fb4:	028e8e93          	addi	t4,t4,40
    80002fb8:	baff66e3          	bltu	t5,a5,80002b64 <mm_cb+0xa14>
    80002fbc:	e3043783          	ld	a5,-464(s0)
    80002fc0:	e9043303          	ld	t1,-368(s0)
    80002fc4:	f2043703          	ld	a4,-224(s0)
    80002fc8:	007788b3          	add	a7,a5,t2
    80002fcc:	601c                	ld	a5,0(s0)
    80002fce:	f2843803          	ld	a6,-216(s0)
    80002fd2:	de843583          	ld	a1,-536(s0)
    80002fd6:	e03e                	sd	a5,0(sp)
    80002fd8:	e2043783          	ld	a5,-480(s0)
    80002fdc:	86ee                	mv	a3,s11
    80002fde:	8616                	mv	a2,t0
    80002fe0:	137d                	addi	t1,t1,-1
    80002fe2:	4511                	li	a0,4
    80002fe4:	e1f43023          	sd	t6,-512(s0)
    80002fe8:	e0743823          	sd	t2,-496(s0)
    80002fec:	e0543c23          	sd	t0,-488(s0)
    80002ff0:	e8643823          	sd	t1,-368(s0)
    80002ff4:	80cff0ef          	jal	ra,80002000 <mm_naive>
    80002ff8:	e4043783          	ld	a5,-448(s0)
    80002ffc:	dd843703          	ld	a4,-552(s0)
    80003000:	e1043383          	ld	t2,-496(s0)
    80003004:	9dbe                	add	s11,s11,a5
    80003006:	993e                	add	s2,s2,a5
    80003008:	99be                	add	s3,s3,a5
    8000300a:	e9043783          	ld	a5,-368(s0)
    8000300e:	e1843283          	ld	t0,-488(s0)
    80003012:	e0043f83          	ld	t6,-512(s0)
    80003016:	93ba                	add	t2,t2,a4
    80003018:	b20795e3          	bnez	a5,80002b42 <mm_cb+0x9f2>
    8000301c:	e7843703          	ld	a4,-392(s0)
    80003020:	e9843903          	ld	s2,-360(s0)
    80003024:	ee843303          	ld	t1,-280(s0)
    80003028:	ec843883          	ld	a7,-312(s0)
    8000302c:	012706b3          	add	a3,a4,s2
    80003030:	6018                	ld	a4,0(s0)
    80003032:	f2843803          	ld	a6,-216(s0)
    80003036:	e0843583          	ld	a1,-504(s0)
    8000303a:	e03a                	sd	a4,0(sp)
    8000303c:	f2043703          	ld	a4,-224(s0)
    80003040:	87fe                	mv	a5,t6
    80003042:	01830993          	addi	s3,t1,24
    80003046:	8616                	mv	a2,t0
    80003048:	4501                	li	a0,0
    8000304a:	e9f43823          	sd	t6,-368(s0)
    8000304e:	ef343423          	sd	s3,-280(s0)
    80003052:	faffe0ef          	jal	ra,80002000 <mm_naive>
    80003056:	0c090793          	addi	a5,s2,192
    8000305a:	e9043f83          	ld	t6,-368(s0)
    8000305e:	e8f43c23          	sd	a5,-360(s0)
    80003062:	dc043783          	ld	a5,-576(s0)
    80003066:	9fbe                	add	t6,t6,a5
    80003068:	f1843783          	ld	a5,-232(s0)
    8000306c:	a8f9e5e3          	bltu	s3,a5,80002af6 <mm_cb+0x9a6>
    80003070:	82a6                	mv	t0,s1
    80003072:	a385                	j	800035d2 <mm_cb+0x1482>
    80003074:	ec843783          	ld	a5,-312(s0)
    80003078:	4765                	li	a4,25
    8000307a:	ee843f03          	ld	t5,-280(s0)
    8000307e:	02e7d333          	divu	t1,a5,a4
    80003082:	00379e13          	slli	t3,a5,0x3
    80003086:	dd043783          	ld	a5,-560(s0)
    8000308a:	4d81                	li	s11,0
    8000308c:	01e784b3          	add	s1,a5,t5
    80003090:	df043783          	ld	a5,-528(s0)
    80003094:	01e78933          	add	s2,a5,t5
    80003098:	e4843783          	ld	a5,-440(s0)
    8000309c:	9e3e                	add	t3,t3,a5
    8000309e:	e6843783          	ld	a5,-408(s0)
    800030a2:	933e                	add	t1,t1,a5
    800030a4:	6785                	lui	a5,0x1
    800030a6:	2c078793          	addi	a5,a5,704 # 12c0 <buflen.1+0x1240>
    800030aa:	02f30333          	mul	t1,t1,a5
    800030ae:	ed043783          	ld	a5,-304(s0)
    800030b2:	933e                	add	t1,t1,a5
    800030b4:	0c830c93          	addi	s9,t1,200
    800030b8:	829a                	mv	t0,t1
    800030ba:	8366                	mv	t1,s9
    800030bc:	e2043c83          	ld	s9,-480(s0)
    800030c0:	87fa                	mv	a5,t5
    800030c2:	8f72                	mv	t5,t3
    800030c4:	8e6e                	mv	t3,s11
    800030c6:	8dbe                	mv	s11,a5
    800030c8:	df843383          	ld	t2,-520(s0)
    800030cc:	f3830513          	addi	a0,t1,-200
    800030d0:	88fa                	mv	a7,t5
    800030d2:	00053e07          	fld	ft8,0(a0)
    800030d6:	2500                	fld	fs0,8(a0)
    800030d8:	01053f87          	fld	ft11,16(a0)
    800030dc:	01853f07          	fld	ft10,24(a0)
    800030e0:	02053007          	fld	ft0,32(a0)
    800030e4:	0c853e87          	fld	ft9,200(a0)
    800030e8:	0d053887          	fld	fa7,208(a0)
    800030ec:	0d853807          	fld	fa6,216(a0)
    800030f0:	0e053387          	fld	ft7,224(a0)
    800030f4:	356c                	fld	fa1,232(a0)
    800030f6:	19053187          	fld	ft3,400(a0)
    800030fa:	19853307          	fld	ft6,408(a0)
    800030fe:	1a053287          	fld	ft5,416(a0)
    80003102:	1a853207          	fld	ft4,424(a0)
    80003106:	1b053707          	fld	fa4,432(a0)
    8000310a:	25853507          	fld	fa0,600(a0)
    8000310e:	26053107          	fld	ft2,608(a0)
    80003112:	26853087          	fld	ft1,616(a0)
    80003116:	27053607          	fld	fa2,624(a0)
    8000311a:	27853787          	fld	fa5,632(a0)
    8000311e:	87c6                	mv	a5,a7
    80003120:	309df763          	bgeu	s11,s1,8000342e <mm_cb+0x12de>
    80003124:	22c60c53          	fmv.d	fs8,fa2
    80003128:	22f78bd3          	fmv.d	fs7,fa5
    8000312c:	22420653          	fmv.d	fa2,ft4
    80003130:	01bd0633          	add	a2,s10,s11
    80003134:	23de8253          	fmv.d	ft4,ft9
    80003138:	23ff87d3          	fmv.d	fa5,ft11
    8000313c:	23ef0ed3          	fmv.d	ft9,ft10
    80003140:	00cd06b3          	add	a3,s10,a2
    80003144:	00dd05b3          	add	a1,s10,a3
    80003148:	876e                	mv	a4,s11
    8000314a:	00073d07          	fld	fs10,0(a4)
    8000314e:	00063a87          	fld	fs5,0(a2)
    80003152:	2284                	fld	fs1,0(a3)
    80003154:	2194                	fld	fa3,0(a1)
    80003156:	0007bc87          	fld	fs9,0(a5)
    8000315a:	0087bb07          	fld	fs6,8(a5)
    8000315e:	0107b987          	fld	fs3,16(a5)
    80003162:	0207ba07          	fld	fs4,32(a5)
    80003166:	0187b907          	fld	fs2,24(a5)
    8000316a:	e39d7e43          	fmadd.d	ft8,fs10,fs9,ft8
    8000316e:	436d7443          	fmadd.d	fs0,fs10,fs6,fs0
    80003172:	7b3d77c3          	fmadd.d	fa5,fs10,fs3,fa5
    80003176:	eb2d7ec3          	fmadd.d	ft9,fs10,fs2,ft9
    8000317a:	034d7043          	fmadd.d	ft0,fs10,fs4,ft0
    8000317e:	239af243          	fmadd.d	ft4,fs5,fs9,ft4
    80003182:	8b6af8c3          	fmadd.d	fa7,fs5,fs6,fa7
    80003186:	833af843          	fmadd.d	fa6,fs5,fs3,fa6
    8000318a:	3b2af3c3          	fmadd.d	ft7,fs5,fs2,ft7
    8000318e:	5b4af5c3          	fmadd.d	fa1,fs5,fs4,fa1
    80003192:	3364f343          	fmadd.d	ft6,fs1,fs6,ft6
    80003196:	1b94fac3          	fmadd.d	fs5,fs1,fs9,ft3
    8000319a:	2b34f2c3          	fmadd.d	ft5,fs1,fs3,ft5
    8000319e:	6324f643          	fmadd.d	fa2,fs1,fs2,fa2
    800031a2:	5396f543          	fmadd.d	fa0,fa3,fs9,fa0
    800031a6:	7344f4c3          	fmadd.d	fs1,fs1,fs4,fa4
    800031aa:	1366f143          	fmadd.d	ft2,fa3,fs6,ft2
    800031ae:	0b36f0c3          	fmadd.d	ft1,fa3,fs3,ft1
    800031b2:	c326f943          	fmadd.d	fs2,fa3,fs2,fs8
    800031b6:	bb46f6c3          	fmadd.d	fa3,fa3,fs4,fs7
    800031ba:	01378833          	add	a6,a5,s3
    800031be:	00873f87          	fld	ft11,8(a4)
    800031c2:	00863f07          	fld	ft10,8(a2)
    800031c6:	0086b187          	fld	ft3,8(a3)
    800031ca:	2598                	fld	fa4,8(a1)
    800031cc:	00083c07          	fld	fs8,0(a6)
    800031d0:	00883b87          	fld	fs7,8(a6)
    800031d4:	01083b07          	fld	fs6,16(a6)
    800031d8:	01883a07          	fld	fs4,24(a6)
    800031dc:	02083987          	fld	fs3,32(a6)
    800031e0:	e38ffe43          	fmadd.d	ft8,ft11,fs8,ft8
    800031e4:	437ff443          	fmadd.d	fs0,ft11,fs7,fs0
    800031e8:	7b6ff7c3          	fmadd.d	fa5,ft11,fs6,fa5
    800031ec:	eb4ffec3          	fmadd.d	ft9,ft11,fs4,ft9
    800031f0:	033ff043          	fmadd.d	ft0,ft11,fs3,ft0
    800031f4:	238f7243          	fmadd.d	ft4,ft10,fs8,ft4
    800031f8:	8b7f78c3          	fmadd.d	fa7,ft10,fs7,fa7
    800031fc:	836f7843          	fmadd.d	fa6,ft10,fs6,fa6
    80003200:	3b4f73c3          	fmadd.d	ft7,ft10,fs4,ft7
    80003204:	5b3f75c3          	fmadd.d	fa1,ft10,fs3,fa1
    80003208:	ab81fac3          	fmadd.d	fs5,ft3,fs8,fs5
    8000320c:	3371f343          	fmadd.d	ft6,ft3,fs7,ft6
    80003210:	2b61f2c3          	fmadd.d	ft5,ft3,fs6,ft5
    80003214:	6341f643          	fmadd.d	fa2,ft3,fs4,fa2
    80003218:	53877543          	fmadd.d	fa0,fa4,fs8,fa0
    8000321c:	4b31f1c3          	fmadd.d	ft3,ft3,fs3,fs1
    80003220:	13777143          	fmadd.d	ft2,fa4,fs7,ft2
    80003224:	0b6770c3          	fmadd.d	ft1,fa4,fs6,ft1
    80003228:	93477943          	fmadd.d	fs2,fa4,fs4,fs2
    8000322c:	6b377743          	fmadd.d	fa4,fa4,fs3,fa3
    80003230:	00fc8833          	add	a6,s9,a5
    80003234:	01073c07          	fld	fs8,16(a4)
    80003238:	2a14                	fld	fa3,16(a2)
    8000323a:	2a84                	fld	fs1,16(a3)
    8000323c:	0105bf07          	fld	ft10,16(a1)
    80003240:	00083b87          	fld	fs7,0(a6)
    80003244:	00883b07          	fld	fs6,8(a6)
    80003248:	01083a07          	fld	fs4,16(a6)
    8000324c:	01883987          	fld	fs3,24(a6)
    80003250:	02083f87          	fld	ft11,32(a6)
    80003254:	e37c7e43          	fmadd.d	ft8,fs8,fs7,ft8
    80003258:	933f7943          	fmadd.d	fs2,ft10,fs3,fs2
    8000325c:	73ff7743          	fmadd.d	fa4,ft10,ft11,fa4
    80003260:	436c7443          	fmadd.d	fs0,fs8,fs6,fs0
    80003264:	7b4c77c3          	fmadd.d	fa5,fs8,fs4,fa5
    80003268:	eb3c7ec3          	fmadd.d	ft9,fs8,fs3,ft9
    8000326c:	03fc7043          	fmadd.d	ft0,fs8,ft11,ft0
    80003270:	2376f243          	fmadd.d	ft4,fa3,fs7,ft4
    80003274:	8b66f8c3          	fmadd.d	fa7,fa3,fs6,fa7
    80003278:	8346f843          	fmadd.d	fa6,fa3,fs4,fa6
    8000327c:	3b36f3c3          	fmadd.d	ft7,fa3,fs3,ft7
    80003280:	5bf6f5c3          	fmadd.d	fa1,fa3,ft11,fa1
    80003284:	ab74fac3          	fmadd.d	fs5,fs1,fs7,fs5
    80003288:	3364f343          	fmadd.d	ft6,fs1,fs6,ft6
    8000328c:	2b44f2c3          	fmadd.d	ft5,fs1,fs4,ft5
    80003290:	6334f643          	fmadd.d	fa2,fs1,fs3,fa2
    80003294:	537f7543          	fmadd.d	fa0,ft10,fs7,fa0
    80003298:	1bf4f4c3          	fmadd.d	fs1,fs1,ft11,ft3
    8000329c:	136f7143          	fmadd.d	ft2,ft10,fs6,ft2
    800032a0:	0b4f70c3          	fmadd.d	ft1,ft10,fs4,ft1
    800032a4:	01878833          	add	a6,a5,s8
    800032a8:	01873c07          	fld	fs8,24(a4)
    800032ac:	00083b07          	fld	fs6,0(a6)
    800032b0:	00883a07          	fld	fs4,8(a6)
    800032b4:	01083987          	fld	fs3,16(a6)
    800032b8:	01883f87          	fld	ft11,24(a6)
    800032bc:	02083f07          	fld	ft10,32(a6)
    800032c0:	2e14                	fld	fa3,24(a2)
    800032c2:	0186b187          	fld	ft3,24(a3)
    800032c6:	0185bb87          	fld	fs7,24(a1)
    800032ca:	e36c7e43          	fmadd.d	ft8,fs8,fs6,ft8
    800032ce:	434c7443          	fmadd.d	fs0,fs8,fs4,fs0
    800032d2:	536bf543          	fmadd.d	fa0,fs7,fs6,fa0
    800032d6:	134bf143          	fmadd.d	ft2,fs7,fs4,ft2
    800032da:	0b3bf0c3          	fmadd.d	ft1,fs7,fs3,ft1
    800032de:	7b3c77c3          	fmadd.d	fa5,fs8,fs3,fa5
    800032e2:	ebfc7ec3          	fmadd.d	ft9,fs8,ft11,ft9
    800032e6:	2366f243          	fmadd.d	ft4,fa3,fs6,ft4
    800032ea:	8b46f8c3          	fmadd.d	fa7,fa3,fs4,fa7
    800032ee:	8336f843          	fmadd.d	fa6,fa3,fs3,fa6
    800032f2:	3bf6f3c3          	fmadd.d	ft7,fa3,ft11,ft7
    800032f6:	5be6f5c3          	fmadd.d	fa1,fa3,ft10,fa1
    800032fa:	ab61fac3          	fmadd.d	fs5,ft3,fs6,fs5
    800032fe:	3341f343          	fmadd.d	ft6,ft3,fs4,ft6
    80003302:	2b31f2c3          	fmadd.d	ft5,ft3,fs3,ft5
    80003306:	63f1f643          	fmadd.d	fa2,ft3,ft11,fa2
    8000330a:	03ec7043          	fmadd.d	ft0,fs8,ft10,ft0
    8000330e:	4be1f1c3          	fmadd.d	ft3,ft3,ft10,fs1
    80003312:	93fbffc3          	fmadd.d	ft11,fs7,ft11,fs2
    80003316:	73ebfbc3          	fmadd.d	fs7,fs7,ft10,fa4
    8000331a:	00fb8833          	add	a6,s7,a5
    8000331e:	3304                	fld	fs1,32(a4)
    80003320:	3298                	fld	fa4,32(a3)
    80003322:	3214                	fld	fa3,32(a2)
    80003324:	0205bd07          	fld	fs10,32(a1)
    80003328:	02083907          	fld	fs2,32(a6)
    8000332c:	00083b07          	fld	fs6,0(a6)
    80003330:	00883d87          	fld	fs11,8(a6)
    80003334:	01083c87          	fld	fs9,16(a6)
    80003338:	01883c07          	fld	fs8,24(a6)
    8000333c:	e364fe43          	fmadd.d	ft8,fs1,fs6,ft8
    80003340:	43b4f443          	fmadd.d	fs0,fs1,fs11,fs0
    80003344:	7b94f7c3          	fmadd.d	fa5,fs1,fs9,fa5
    80003348:	eb84fec3          	fmadd.d	ft9,fs1,fs8,ft9
    8000334c:	0324f043          	fmadd.d	ft0,fs1,fs2,ft0
    80003350:	2366f243          	fmadd.d	ft4,fa3,fs6,ft4
    80003354:	1b2774c3          	fmadd.d	fs1,fa4,fs2,ft3
    80003358:	8bb6f8c3          	fmadd.d	fa7,fa3,fs11,fa7
    8000335c:	8396f843          	fmadd.d	fa6,fa3,fs9,fa6
    80003360:	3b86f3c3          	fmadd.d	ft7,fa3,fs8,ft7
    80003364:	ab677ac3          	fmadd.d	fs5,fa4,fs6,fs5
    80003368:	5b26f6c3          	fmadd.d	fa3,fa3,fs2,fa1
    8000336c:	33b77343          	fmadd.d	ft6,fa4,fs11,ft6
    80003370:	2b9772c3          	fmadd.d	ft5,fa4,fs9,ft5
    80003374:	63877643          	fmadd.d	fa2,fa4,fs8,fa2
    80003378:	536d7b43          	fmadd.d	fs6,fs10,fs6,fa0
    8000337c:	13bd7dc3          	fmadd.d	fs11,fs10,fs11,ft2
    80003380:	0b9d7cc3          	fmadd.d	fs9,fs10,fs9,ft1
    80003384:	bb2d7bc3          	fmadd.d	fs7,fs10,fs2,fs7
    80003388:	fb8d7c43          	fmadd.d	fs8,fs10,fs8,ft11
    8000338c:	01678833          	add	a6,a5,s6
    80003390:	02873187          	fld	ft3,40(a4)
    80003394:	360c                	fld	fa1,40(a2)
    80003396:	3698                	fld	fa4,40(a3)
    80003398:	0285ba07          	fld	fs4,40(a1)
    8000339c:	00083507          	fld	fa0,0(a6)
    800033a0:	00883107          	fld	ft2,8(a6)
    800033a4:	01083087          	fld	ft1,16(a6)
    800033a8:	01883907          	fld	fs2,24(a6)
    800033ac:	02083987          	fld	fs3,32(a6)
    800033b0:	03070713          	addi	a4,a4,48
    800033b4:	e2a1fe43          	fmadd.d	ft8,ft3,fa0,ft8
    800033b8:	4221f443          	fmadd.d	fs0,ft3,ft2,fs0
    800033bc:	7a11f7c3          	fmadd.d	fa5,ft3,ft1,fa5
    800033c0:	22a5f243          	fmadd.d	ft4,fa1,fa0,ft4
    800033c4:	8a25f8c3          	fmadd.d	fa7,fa1,ft2,fa7
    800033c8:	8215f843          	fmadd.d	fa6,fa1,ft1,fa6
    800033cc:	32277343          	fmadd.d	ft6,fa4,ft2,ft6
    800033d0:	2a1772c3          	fmadd.d	ft5,fa4,ft1,ft5
    800033d4:	eb21fec3          	fmadd.d	ft9,ft3,fs2,ft9
    800033d8:	0331f043          	fmadd.d	ft0,ft3,fs3,ft0
    800033dc:	3b25f3c3          	fmadd.d	ft7,fa1,fs2,ft7
    800033e0:	aaa771c3          	fmadd.d	ft3,fa4,fa0,fs5
    800033e4:	63277643          	fmadd.d	fa2,fa4,fs2,fa2
    800033e8:	6b35f5c3          	fmadd.d	fa1,fa1,fs3,fa3
    800033ec:	4b377743          	fmadd.d	fa4,fa4,fs3,fs1
    800033f0:	b2aa7543          	fmadd.d	fa0,fs4,fa0,fs6
    800033f4:	da2a7143          	fmadd.d	ft2,fs4,ft2,fs11
    800033f8:	ca1a70c3          	fmadd.d	ft1,fs4,ft1,fs9
    800033fc:	c32a7c43          	fmadd.d	fs8,fs4,fs2,fs8
    80003400:	bb3a7bc3          	fmadd.d	fs7,fs4,fs3,fs7
    80003404:	97d2                	add	a5,a5,s4
    80003406:	03060613          	addi	a2,a2,48
    8000340a:	03068693          	addi	a3,a3,48
    8000340e:	03058593          	addi	a1,a1,48
    80003412:	d2976ce3          	bltu	a4,s1,8000314a <mm_cb+0xffa>
    80003416:	22f78fd3          	fmv.d	ft11,fa5
    8000341a:	23de8f53          	fmv.d	ft10,ft9
    8000341e:	237b87d3          	fmv.d	fa5,fs7
    80003422:	22420ed3          	fmv.d	ft9,ft4
    80003426:	22c60253          	fmv.d	ft4,fa2
    8000342a:	238c0653          	fmv.d	fa2,fs8
    8000342e:	011387b3          	add	a5,t2,a7
    80003432:	0924f563          	bgeu	s1,s2,800034bc <mm_cb+0x136c>
    80003436:	8726                	mv	a4,s1
    80003438:	01a705b3          	add	a1,a4,s10
    8000343c:	01a58633          	add	a2,a1,s10
    80003440:	01a606b3          	add	a3,a2,s10
    80003444:	00073987          	fld	fs3,0(a4)
    80003448:	0007bc07          	fld	fs8,0(a5)
    8000344c:	0087bb87          	fld	fs7,8(a5)
    80003450:	0107bb07          	fld	fs6,16(a5)
    80003454:	0187ba87          	fld	fs5,24(a5)
    80003458:	0207ba07          	fld	fs4,32(a5)
    8000345c:	0005b907          	fld	fs2,0(a1)
    80003460:	2204                	fld	fs1,0(a2)
    80003462:	2294                	fld	fa3,0(a3)
    80003464:	0721                	addi	a4,a4,8
    80003466:	e389fe43          	fmadd.d	ft8,fs3,fs8,ft8
    8000346a:	4379f443          	fmadd.d	fs0,fs3,fs7,fs0
    8000346e:	fb69ffc3          	fmadd.d	ft11,fs3,fs6,ft11
    80003472:	f359ff43          	fmadd.d	ft10,fs3,fs5,ft10
    80003476:	0349f043          	fmadd.d	ft0,fs3,fs4,ft0
    8000347a:	eb897ec3          	fmadd.d	ft9,fs2,fs8,ft9
    8000347e:	8b7978c3          	fmadd.d	fa7,fs2,fs7,fa7
    80003482:	83697843          	fmadd.d	fa6,fs2,fs6,fa6
    80003486:	3b5973c3          	fmadd.d	ft7,fs2,fs5,ft7
    8000348a:	5b4975c3          	fmadd.d	fa1,fs2,fs4,fa1
    8000348e:	1b84f1c3          	fmadd.d	ft3,fs1,fs8,ft3
    80003492:	3374f343          	fmadd.d	ft6,fs1,fs7,ft6
    80003496:	2b64f2c3          	fmadd.d	ft5,fs1,fs6,ft5
    8000349a:	2354f243          	fmadd.d	ft4,fs1,fs5,ft4
    8000349e:	7344f743          	fmadd.d	fa4,fs1,fs4,fa4
    800034a2:	5386f543          	fmadd.d	fa0,fa3,fs8,fa0
    800034a6:	1376f143          	fmadd.d	ft2,fa3,fs7,ft2
    800034aa:	0b66f0c3          	fmadd.d	ft1,fa3,fs6,ft1
    800034ae:	6356f643          	fmadd.d	fa2,fa3,fs5,fa2
    800034b2:	7b46f7c3          	fmadd.d	fa5,fa3,fs4,fa5
    800034b6:	97ce                	add	a5,a5,s3
    800034b8:	f92760e3          	bltu	a4,s2,80003438 <mm_cb+0x12e8>
    800034bc:	01c53027          	fsd	ft8,0(a0)
    800034c0:	a500                	fsd	fs0,8(a0)
    800034c2:	01f53827          	fsd	ft11,16(a0)
    800034c6:	01e53c27          	fsd	ft10,24(a0)
    800034ca:	02053027          	fsd	ft0,32(a0)
    800034ce:	0dd53427          	fsd	ft9,200(a0)
    800034d2:	0d153827          	fsd	fa7,208(a0)
    800034d6:	0d053c27          	fsd	fa6,216(a0)
    800034da:	0e753027          	fsd	ft7,224(a0)
    800034de:	b56c                	fsd	fa1,232(a0)
    800034e0:	18353827          	fsd	ft3,400(a0)
    800034e4:	18653c27          	fsd	ft6,408(a0)
    800034e8:	1a553027          	fsd	ft5,416(a0)
    800034ec:	1a453427          	fsd	ft4,424(a0)
    800034f0:	1ae53827          	fsd	fa4,432(a0)
    800034f4:	24a53c27          	fsd	fa0,600(a0)
    800034f8:	26253027          	fsd	ft2,608(a0)
    800034fc:	26153427          	fsd	ft1,616(a0)
    80003500:	26c53827          	fsd	fa2,624(a0)
    80003504:	26f53c27          	fsd	fa5,632(a0)
    80003508:	02888893          	addi	a7,a7,40
    8000350c:	02850513          	addi	a0,a0,40
    80003510:	bd1e91e3          	bne	t4,a7,800030d2 <mm_cb+0xf82>
    80003514:	f2843803          	ld	a6,-216(s0)
    80003518:	f2043703          	ld	a4,-224(s0)
    8000351c:	e5043603          	ld	a2,-432(s0)
    80003520:	47e5                	li	a5,25
    80003522:	064e0e13          	addi	t3,t3,100
    80003526:	889a                	mv	a7,t1
    80003528:	86ee                	mv	a3,s11
    8000352a:	e03e                	sd	a5,0(sp)
    8000352c:	4581                	li	a1,0
    8000352e:	87f6                	mv	a5,t4
    80003530:	4511                	li	a0,4
    80003532:	da543823          	sd	t0,-592(s0)
    80003536:	dbe43c23          	sd	t5,-584(s0)
    8000353a:	e0643023          	sd	t1,-512(s0)
    8000353e:	e1d43823          	sd	t4,-496(s0)
    80003542:	e9c43c23          	sd	t3,-360(s0)
    80003546:	abbfe0ef          	jal	ra,80002000 <mm_naive>
    8000354a:	e4043783          	ld	a5,-448(s0)
    8000354e:	e0043303          	ld	t1,-512(s0)
    80003552:	e9843e03          	ld	t3,-360(s0)
    80003556:	25800f93          	li	t6,600
    8000355a:	e1043e83          	ld	t4,-496(s0)
    8000355e:	db843f03          	ld	t5,-584(s0)
    80003562:	db043283          	ld	t0,-592(s0)
    80003566:	9dbe                	add	s11,s11,a5
    80003568:	32030313          	addi	t1,t1,800
    8000356c:	94be                	add	s1,s1,a5
    8000356e:	993e                	add	s2,s2,a5
    80003570:	b5fe1ce3          	bne	t3,t6,800030c8 <mm_cb+0xf78>
    80003574:	47e5                	li	a5,25
    80003576:	e03e                	sd	a5,0(sp)
    80003578:	6785                	lui	a5,0x1
    8000357a:	2c078793          	addi	a5,a5,704 # 12c0 <buflen.1+0x1240>
    8000357e:	00f288b3          	add	a7,t0,a5
    80003582:	f2843803          	ld	a6,-216(s0)
    80003586:	e9043783          	ld	a5,-368(s0)
    8000358a:	f2043703          	ld	a4,-224(s0)
    8000358e:	e7043683          	ld	a3,-400(s0)
    80003592:	e5043603          	ld	a2,-432(s0)
    80003596:	45e5                	li	a1,25
    80003598:	4501                	li	a0,0
    8000359a:	e9d43c23          	sd	t4,-360(s0)
    8000359e:	a63fe0ef          	jal	ra,80002000 <mm_naive>
    800035a2:	e9843e83          	ld	t4,-360(s0)
    800035a6:	cf8ff06f          	j	80002a9e <mm_cb+0x94e>
    800035aa:	e7843703          	ld	a4,-392(s0)
    800035ae:	ee843783          	ld	a5,-280(s0)
    800035b2:	97ba                	add	a5,a5,a4
    800035b4:	e6f43823          	sd	a5,-400(s0)
    800035b8:	ef843703          	ld	a4,-264(s0)
    800035bc:	ed843783          	ld	a5,-296(s0)
    800035c0:	d0f76363          	bltu	a4,a5,80002ac6 <mm_cb+0x976>
    800035c4:	ee043783          	ld	a5,-288(s0)
    800035c8:	eb043703          	ld	a4,-336(s0)
    800035cc:	97ba                	add	a5,a5,a4
    800035ce:	ecf43423          	sd	a5,-312(s0)
    800035d2:	ec843703          	ld	a4,-312(s0)
    800035d6:	ea043783          	ld	a5,-352(s0)
    800035da:	eee43023          	sd	a4,-288(s0)
    800035de:	e7043703          	ld	a4,-400(s0)
    800035e2:	07e1                	addi	a5,a5,24
    800035e4:	eaf43023          	sd	a5,-352(s0)
    800035e8:	eee43423          	sd	a4,-280(s0)
    800035ec:	f1043703          	ld	a4,-240(s0)
    800035f0:	00e7f463          	bgeu	a5,a4,800035f8 <mm_cb+0x14a8>
    800035f4:	fc1fe06f          	j	800025b4 <mm_cb+0x464>
    800035f8:	e8843783          	ld	a5,-376(s0)
    800035fc:	f1043703          	ld	a4,-240(s0)
    80003600:	12f76163          	bltu	a4,a5,80003722 <mm_cb+0x15d2>
    80003604:	e2843783          	ld	a5,-472(s0)
    80003608:	6018                	ld	a4,0(s0)
    8000360a:	eb843e03          	ld	t3,-328(s0)
    8000360e:	ef843483          	ld	s1,-264(s0)
    80003612:	6505                	lui	a0,0x1
    80003614:	00e78eb3          	add	t4,a5,a4
    80003618:	2c050f93          	addi	t6,a0,704 # 12c0 <buflen.1+0x1240>
    8000361c:	0e9a                	slli	t4,t4,0x6
    8000361e:	4801                	li	a6,0
    80003620:	43e1                	li	t2,24
    80003622:	42e5                	li	t0,25
    80003624:	38050513          	addi	a0,a0,896
    80003628:	c0d1                	beqz	s1,800036ac <mm_cb+0x155c>
    8000362a:	027855b3          	divu	a1,a6,t2
    8000362e:	f0043783          	ld	a5,-256(s0)
    80003632:	8f72                	mv	t5,t3
    80003634:	4881                	li	a7,0
    80003636:	02f585b3          	mul	a1,a1,a5
    8000363a:	ed043703          	ld	a4,-304(s0)
    8000363e:	837a                	mv	t1,t5
    80003640:	0258d7b3          	divu	a5,a7,t0
    80003644:	97ae                	add	a5,a5,a1
    80003646:	03f787b3          	mul	a5,a5,t6
    8000364a:	97ba                	add	a5,a5,a4
    8000364c:	0c078693          	addi	a3,a5,192
    80003650:	00a78633          	add	a2,a5,a0
    80003654:	f4068793          	addi	a5,a3,-192
    80003658:	871a                	mv	a4,t1
    8000365a:	0007b087          	fld	ft1,0(a5)
    8000365e:	0087b007          	fld	ft0,8(a5)
    80003662:	2b88                	fld	fa0,16(a5)
    80003664:	2f8c                	fld	fa1,24(a5)
    80003666:	3390                	fld	fa2,32(a5)
    80003668:	3794                	fld	fa3,40(a5)
    8000366a:	3b98                	fld	fa4,48(a5)
    8000366c:	3f9c                	fld	fa5,56(a5)
    8000366e:	00173027          	fsd	ft1,0(a4)
    80003672:	00073427          	fsd	ft0,8(a4)
    80003676:	ab08                	fsd	fa0,16(a4)
    80003678:	af0c                	fsd	fa1,24(a4)
    8000367a:	b310                	fsd	fa2,32(a4)
    8000367c:	b714                	fsd	fa3,40(a4)
    8000367e:	bb18                	fsd	fa4,48(a4)
    80003680:	bf1c                	fsd	fa5,56(a4)
    80003682:	04078793          	addi	a5,a5,64
    80003686:	04070713          	addi	a4,a4,64
    8000368a:	fcf698e3          	bne	a3,a5,8000365a <mm_cb+0x150a>
    8000368e:	229c                	fld	fa5,0(a3)
    80003690:	ef043783          	ld	a5,-272(s0)
    80003694:	0c868693          	addi	a3,a3,200
    80003698:	0cf33027          	fsd	fa5,192(t1)
    8000369c:	933e                	add	t1,t1,a5
    8000369e:	fad61be3          	bne	a2,a3,80003654 <mm_cb+0x1504>
    800036a2:	08e5                	addi	a7,a7,25
    800036a4:	0c8f0f13          	addi	t5,t5,200
    800036a8:	f898e9e3          	bltu	a7,s1,8000363a <mm_cb+0x14ea>
    800036ac:	f1043783          	ld	a5,-240(s0)
    800036b0:	0861                	addi	a6,a6,24
    800036b2:	9e76                	add	t3,t3,t4
    800036b4:	f6f86ae3          	bltu	a6,a5,80003628 <mm_cb+0x14d8>
    800036b8:	d8040113          	addi	sp,s0,-640
    800036bc:	27813083          	ld	ra,632(sp)
    800036c0:	27013403          	ld	s0,624(sp)
    800036c4:	26813483          	ld	s1,616(sp)
    800036c8:	26013903          	ld	s2,608(sp)
    800036cc:	25813983          	ld	s3,600(sp)
    800036d0:	25013a03          	ld	s4,592(sp)
    800036d4:	24813a83          	ld	s5,584(sp)
    800036d8:	24013b03          	ld	s6,576(sp)
    800036dc:	23813b83          	ld	s7,568(sp)
    800036e0:	23013c03          	ld	s8,560(sp)
    800036e4:	22813c83          	ld	s9,552(sp)
    800036e8:	22013d03          	ld	s10,544(sp)
    800036ec:	21813d83          	ld	s11,536(sp)
    800036f0:	20813407          	fld	fs0,520(sp)
    800036f4:	20013487          	fld	fs1,512(sp)
    800036f8:	397e                	fld	fs2,504(sp)
    800036fa:	39de                	fld	fs3,496(sp)
    800036fc:	3a3e                	fld	fs4,488(sp)
    800036fe:	3a9e                	fld	fs5,480(sp)
    80003700:	2b7e                	fld	fs6,472(sp)
    80003702:	2bde                	fld	fs7,464(sp)
    80003704:	2c3e                	fld	fs8,456(sp)
    80003706:	2c9e                	fld	fs9,448(sp)
    80003708:	3d7a                	fld	fs10,440(sp)
    8000370a:	3dda                	fld	fs11,432(sp)
    8000370c:	28010113          	addi	sp,sp,640
    80003710:	8082                	ret
    80003712:	f0843783          	ld	a5,-248(s0)
    80003716:	c399                	beqz	a5,8000371c <mm_cb+0x15cc>
    80003718:	bfbfe06f          	j	80002312 <mm_cb+0x1c2>
    8000371c:	e8843783          	ld	a5,-376(s0)
    80003720:	dfc1                	beqz	a5,800036b8 <mm_cb+0x1568>
    80003722:	ed843783          	ld	a5,-296(s0)
    80003726:	6c078d63          	beqz	a5,80003e00 <mm_cb+0x1cb0>
    8000372a:	e8843783          	ld	a5,-376(s0)
    8000372e:	46e1                	li	a3,24
    80003730:	f2843603          	ld	a2,-216(s0)
    80003734:	02d7f6b3          	remu	a3,a5,a3
    80003738:	601c                	ld	a5,0(s0)
    8000373a:	f2043503          	ld	a0,-224(s0)
    8000373e:	00261713          	slli	a4,a2,0x2
    80003742:	00379593          	slli	a1,a5,0x3
    80003746:	00161793          	slli	a5,a2,0x1
    8000374a:	97b2                	add	a5,a5,a2
    8000374c:	00479393          	slli	t2,a5,0x4
    80003750:	00379b13          	slli	s6,a5,0x3
    80003754:	079a                	slli	a5,a5,0x6
    80003756:	e4f43423          	sd	a5,-440(s0)
    8000375a:	00551793          	slli	a5,a0,0x5
    8000375e:	e4f43823          	sd	a5,-432(s0)
    80003762:	601c                	ld	a5,0(s0)
    80003764:	9732                	add	a4,a4,a2
    80003766:	00371c93          	slli	s9,a4,0x3
    8000376a:	0796                	slli	a5,a5,0x5
    8000376c:	e8043703          	ld	a4,-384(s0)
    80003770:	e4f43c23          	sd	a5,-424(s0)
    80003774:	f1043783          	ld	a5,-240(s0)
    80003778:	eae43423          	sd	a4,-344(s0)
    8000377c:	00561d93          	slli	s11,a2,0x5
    80003780:	00361a93          	slli	s5,a2,0x3
    80003784:	00461b93          	slli	s7,a2,0x4
    80003788:	00351d13          	slli	s10,a0,0x3
    8000378c:	8fe6                	mv	t6,s9
    8000378e:	eeb43823          	sd	a1,-272(s0)
    80003792:	ec043423          	sd	zero,-312(s0)
    80003796:	8c5e                	mv	s8,s7
    80003798:	82da                	mv	t0,s6
    8000379a:	8cd6                	mv	s9,s5
    8000379c:	02b78733          	mul	a4,a5,a1
    800037a0:	ffc6f613          	andi	a2,a3,-4
    800037a4:	8a8d                	andi	a3,a3,3
    800037a6:	e8d43423          	sd	a3,-376(s0)
    800037aa:	eb843683          	ld	a3,-328(s0)
    800037ae:	eac43023          	sd	a2,-352(s0)
    800037b2:	9736                	add	a4,a4,a3
    800037b4:	f0e43423          	sd	a4,-248(s0)
    800037b8:	03a60733          	mul	a4,a2,s10
    800037bc:	03a787b3          	mul	a5,a5,s10
    800037c0:	e8e43023          	sd	a4,-384(s0)
    800037c4:	e3843703          	ld	a4,-456(s0)
    800037c8:	97ba                	add	a5,a5,a4
    800037ca:	e6f43023          	sd	a5,-416(s0)
    800037ce:	02b607b3          	mul	a5,a2,a1
    800037d2:	e6f43c23          	sd	a5,-392(s0)
    800037d6:	879e                	mv	a5,t2
    800037d8:	83ee                	mv	t2,s11
    800037da:	8dbe                	mv	s11,a5
    800037dc:	f1843783          	ld	a5,-232(s0)
    800037e0:	5e078b63          	beqz	a5,80003dd6 <mm_cb+0x1c86>
    800037e4:	ec843703          	ld	a4,-312(s0)
    800037e8:	ed843783          	ld	a5,-296(s0)
    800037ec:	8f99                	sub	a5,a5,a4
    800037ee:	eef43023          	sd	a5,-288(s0)
    800037f2:	4765                	li	a4,25
    800037f4:	00f77563          	bgeu	a4,a5,800037fe <mm_cb+0x16ae>
    800037f8:	47e5                	li	a5,25
    800037fa:	eef43023          	sd	a5,-288(s0)
    800037fe:	ee043703          	ld	a4,-288(s0)
    80003802:	4695                	li	a3,5
    80003804:	e7843603          	ld	a2,-392(s0)
    80003808:	02d757b3          	divu	a5,a4,a3
    8000380c:	f0843583          	ld	a1,-248(s0)
    80003810:	e6043a83          	ld	s5,-416(s0)
    80003814:	89fe                	mv	s3,t6
    80003816:	962e                	add	a2,a2,a1
    80003818:	e6c43823          	sd	a2,-400(s0)
    8000381c:	ea843603          	ld	a2,-344(s0)
    80003820:	8fd6                	mv	t6,s5
    80003822:	ec043023          	sd	zero,-320(s0)
    80003826:	eec43423          	sd	a2,-280(s0)
    8000382a:	8a16                	mv	s4,t0
    8000382c:	8a9e                	mv	s5,t2
    8000382e:	02d77733          	remu	a4,a4,a3
    80003832:	e8e43823          	sd	a4,-368(s0)
    80003836:	00279713          	slli	a4,a5,0x2
    8000383a:	00f70bb3          	add	s7,a4,a5
    8000383e:	003b9793          	slli	a5,s7,0x3
    80003842:	e8f43c23          	sd	a5,-360(s0)
    80003846:	f1843783          	ld	a5,-232(s0)
    8000384a:	ec043703          	ld	a4,-320(s0)
    8000384e:	40e782b3          	sub	t0,a5,a4
    80003852:	47e1                	li	a5,24
    80003854:	0057f363          	bgeu	a5,t0,8000385a <mm_cb+0x170a>
    80003858:	42e1                	li	t0,24
    8000385a:	ea043783          	ld	a5,-352(s0)
    8000385e:	50078f63          	beqz	a5,80003d7c <mm_cb+0x1c2c>
    80003862:	ee843703          	ld	a4,-280(s0)
    80003866:	e9843783          	ld	a5,-360(s0)
    8000386a:	00329913          	slli	s2,t0,0x3
    8000386e:	997e                	add	s2,s2,t6
    80003870:	97ba                	add	a5,a5,a4
    80003872:	4719                	li	a4,6
    80003874:	02e2d3b3          	divu	t2,t0,a4
    80003878:	e6f43423          	sd	a5,-408(s0)
    8000387c:	f0843783          	ld	a5,-248(s0)
    80003880:	8b7e                	mv	s6,t6
    80003882:	e5f43023          	sd	t6,-448(s0)
    80003886:	ea043823          	sd	zero,-336(s0)
    8000388a:	00139493          	slli	s1,t2,0x1
    8000388e:	949e                	add	s1,s1,t2
    80003890:	03b383b3          	mul	t2,t2,s11
    80003894:	0492                	slli	s1,s1,0x4
    80003896:	94fe                	add	s1,s1,t6
    80003898:	8fbe                	mv	t6,a5
    8000389a:	460b8d63          	beqz	s7,80003d14 <mm_cb+0x1bc4>
    8000389e:	ef043783          	ld	a5,-272(s0)
    800038a2:	ee843e83          	ld	t4,-280(s0)
    800038a6:	88fe                	mv	a7,t6
    800038a8:	01f78833          	add	a6,a5,t6
    800038ac:	01078533          	add	a0,a5,a6
    800038b0:	00a78333          	add	t1,a5,a0
    800038b4:	4f01                	li	t5,0
    800038b6:	0008be07          	fld	ft8,0(a7)
    800038ba:	0088ba87          	fld	fs5,8(a7)
    800038be:	0108ba07          	fld	fs4,16(a7)
    800038c2:	0188b987          	fld	fs3,24(a7)
    800038c6:	0208b007          	fld	ft0,32(a7)
    800038ca:	00083907          	fld	fs2,0(a6)
    800038ce:	00883487          	fld	fs1,8(a6)
    800038d2:	01083407          	fld	fs0,16(a6)
    800038d6:	01883f87          	fld	ft11,24(a6)
    800038da:	02083587          	fld	fa1,32(a6)
    800038de:	00053207          	fld	ft4,0(a0)
    800038e2:	00853f07          	fld	ft10,8(a0)
    800038e6:	01053e87          	fld	ft9,16(a0)
    800038ea:	01853287          	fld	ft5,24(a0)
    800038ee:	3118                	fld	fa4,32(a0)
    800038f0:	00033507          	fld	fa0,0(t1)
    800038f4:	00833107          	fld	ft2,8(t1)
    800038f8:	01033087          	fld	ft1,16(t1)
    800038fc:	01833607          	fld	fa2,24(t1)
    80003900:	02033787          	fld	fa5,32(t1)
    80003904:	87f6                	mv	a5,t4
    80003906:	309b7b63          	bgeu	s6,s1,80003c1c <mm_cb+0x1acc>
    8000390a:	22c60353          	fmv.d	ft6,fa2
    8000390e:	22f78853          	fmv.d	fa6,fa5
    80003912:	016d0633          	add	a2,s10,s6
    80003916:	23398c53          	fmv.d	fs8,fs3
    8000391a:	22420b53          	fmv.d	fs6,ft4
    8000391e:	22a501d3          	fmv.d	ft3,fa0
    80003922:	22528653          	fmv.d	fa2,ft5
    80003926:	234a07d3          	fmv.d	fa5,fs4
    8000392a:	00cd06b3          	add	a3,s10,a2
    8000392e:	00dd05b3          	add	a1,s10,a3
    80003932:	875a                	mv	a4,s6
    80003934:	00073287          	fld	ft5,0(a4)
    80003938:	2214                	fld	fa3,0(a2)
    8000393a:	0006bc87          	fld	fs9,0(a3)
    8000393e:	0005b887          	fld	fa7,0(a1)
    80003942:	0007bb87          	fld	fs7,0(a5)
    80003946:	0087ba07          	fld	fs4,8(a5)
    8000394a:	0107b987          	fld	fs3,16(a5)
    8000394e:	0187b207          	fld	ft4,24(a5)
    80003952:	3388                	fld	fa0,32(a5)
    80003954:	e372fe43          	fmadd.d	ft8,ft5,fs7,ft8
    80003958:	c242f3c3          	fmadd.d	ft7,ft5,ft4,fs8
    8000395c:	ab42fac3          	fmadd.d	fs5,ft5,fs4,fs5
    80003960:	7b32f7c3          	fmadd.d	fa5,ft5,fs3,fa5
    80003964:	02a2f043          	fmadd.d	ft0,ft5,fa0,ft0
    80003968:	4b46f4c3          	fmadd.d	fs1,fa3,fs4,fs1
    8000396c:	9376f2c3          	fmadd.d	ft5,fa3,fs7,fs2
    80003970:	4336f443          	fmadd.d	fs0,fa3,fs3,fs0
    80003974:	fa46ffc3          	fmadd.d	ft11,fa3,ft4,ft11
    80003978:	5aa6f5c3          	fmadd.d	fa1,fa3,fa0,fa1
    8000397c:	b37cfb43          	fmadd.d	fs6,fs9,fs7,fs6
    80003980:	f34cff43          	fmadd.d	ft10,fs9,fs4,ft10
    80003984:	eb3cfec3          	fmadd.d	ft9,fs9,fs3,ft9
    80003988:	624cf643          	fmadd.d	fa2,fs9,ft4,fa2
    8000398c:	72acf743          	fmadd.d	fa4,fs9,fa0,fa4
    80003990:	1b78f1c3          	fmadd.d	ft3,fa7,fs7,ft3
    80003994:	1348f143          	fmadd.d	ft2,fa7,fs4,ft2
    80003998:	0b38f0c3          	fmadd.d	ft1,fa7,fs3,ft1
    8000399c:	3248f343          	fmadd.d	ft6,fa7,ft4,ft6
    800039a0:	82a8f8c3          	fmadd.d	fa7,fa7,fa0,fa6
    800039a4:	00fc8e33          	add	t3,s9,a5
    800039a8:	00873907          	fld	fs2,8(a4)
    800039ac:	2614                	fld	fa3,8(a2)
    800039ae:	0086b207          	fld	ft4,8(a3)
    800039b2:	2588                	fld	fa0,8(a1)
    800039b4:	000e3d87          	fld	fs11,0(t3)
    800039b8:	008e3d07          	fld	fs10,8(t3)
    800039bc:	010e3c87          	fld	fs9,16(t3)
    800039c0:	018e3b87          	fld	fs7,24(t3)
    800039c4:	020e3807          	fld	fa6,32(t3)
    800039c8:	e3b97e43          	fmadd.d	ft8,fs2,fs11,ft8
    800039cc:	aba97ac3          	fmadd.d	fs5,fs2,fs10,fs5
    800039d0:	7b9977c3          	fmadd.d	fa5,fs2,fs9,fa5
    800039d4:	3b7973c3          	fmadd.d	ft7,fs2,fs7,ft7
    800039d8:	03097043          	fmadd.d	ft0,fs2,fa6,ft0
    800039dc:	2bb6f2c3          	fmadd.d	ft5,fa3,fs11,ft5
    800039e0:	4ba6f4c3          	fmadd.d	fs1,fa3,fs10,fs1
    800039e4:	4396f443          	fmadd.d	fs0,fa3,fs9,fs0
    800039e8:	fb76ffc3          	fmadd.d	ft11,fa3,fs7,ft11
    800039ec:	5b06f5c3          	fmadd.d	fa1,fa3,fa6,fa1
    800039f0:	b3b27b43          	fmadd.d	fs6,ft4,fs11,fs6
    800039f4:	f3a27f43          	fmadd.d	ft10,ft4,fs10,ft10
    800039f8:	eb927ec3          	fmadd.d	ft9,ft4,fs9,ft9
    800039fc:	63727643          	fmadd.d	fa2,ft4,fs7,fa2
    80003a00:	73027743          	fmadd.d	fa4,ft4,fa6,fa4
    80003a04:	1bb571c3          	fmadd.d	ft3,fa0,fs11,ft3
    80003a08:	13a57143          	fmadd.d	ft2,fa0,fs10,ft2
    80003a0c:	0b9570c3          	fmadd.d	ft1,fa0,fs9,ft1
    80003a10:	33757343          	fmadd.d	ft6,fa0,fs7,ft6
    80003a14:	8b057543          	fmadd.d	fa0,fa0,fa6,fa7
    80003a18:	00fc0e33          	add	t3,s8,a5
    80003a1c:	01073c07          	fld	fs8,16(a4)
    80003a20:	2a14                	fld	fa3,16(a2)
    80003a22:	0106b207          	fld	ft4,16(a3)
    80003a26:	0105b887          	fld	fa7,16(a1)
    80003a2a:	000e3b87          	fld	fs7,0(t3)
    80003a2e:	008e3a07          	fld	fs4,8(t3)
    80003a32:	010e3987          	fld	fs3,16(t3)
    80003a36:	018e3907          	fld	fs2,24(t3)
    80003a3a:	020e3807          	fld	fa6,32(t3)
    80003a3e:	e37c7e43          	fmadd.d	ft8,fs8,fs7,ft8
    80003a42:	ab4c7ac3          	fmadd.d	fs5,fs8,fs4,fs5
    80003a46:	73027743          	fmadd.d	fa4,ft4,fa6,fa4
    80003a4a:	7b3c77c3          	fmadd.d	fa5,fs8,fs3,fa5
    80003a4e:	3b2c73c3          	fmadd.d	ft7,fs8,fs2,ft7
    80003a52:	030c7043          	fmadd.d	ft0,fs8,fa6,ft0
    80003a56:	2b76f2c3          	fmadd.d	ft5,fa3,fs7,ft5
    80003a5a:	4b46f4c3          	fmadd.d	fs1,fa3,fs4,fs1
    80003a5e:	4336f443          	fmadd.d	fs0,fa3,fs3,fs0
    80003a62:	fb26ffc3          	fmadd.d	ft11,fa3,fs2,ft11
    80003a66:	5b06f5c3          	fmadd.d	fa1,fa3,fa6,fa1
    80003a6a:	b3727b43          	fmadd.d	fs6,ft4,fs7,fs6
    80003a6e:	f3427f43          	fmadd.d	ft10,ft4,fs4,ft10
    80003a72:	eb327ec3          	fmadd.d	ft9,ft4,fs3,ft9
    80003a76:	63227643          	fmadd.d	fa2,ft4,fs2,fa2
    80003a7a:	1b78f1c3          	fmadd.d	ft3,fa7,fs7,ft3
    80003a7e:	1348f143          	fmadd.d	ft2,fa7,fs4,ft2
    80003a82:	0b38f0c3          	fmadd.d	ft1,fa7,fs3,ft1
    80003a86:	3328f343          	fmadd.d	ft6,fa7,fs2,ft6
    80003a8a:	5308f543          	fmadd.d	fa0,fa7,fa6,fa0
    80003a8e:	01478e33          	add	t3,a5,s4
    80003a92:	01873c07          	fld	fs8,24(a4)
    80003a96:	000e3a07          	fld	fs4,0(t3)
    80003a9a:	008e3987          	fld	fs3,8(t3)
    80003a9e:	010e3907          	fld	fs2,16(t3)
    80003aa2:	018e3807          	fld	fa6,24(t3)
    80003aa6:	020e3887          	fld	fa7,32(t3)
    80003aaa:	2e14                	fld	fa3,24(a2)
    80003aac:	0186b207          	fld	ft4,24(a3)
    80003ab0:	0185bb87          	fld	fs7,24(a1)
    80003ab4:	5b16f5c3          	fmadd.d	fa1,fa3,fa7,fa1
    80003ab8:	e34c7e43          	fmadd.d	ft8,fs8,fs4,ft8
    80003abc:	ab3c7ac3          	fmadd.d	fs5,fs8,fs3,fs5
    80003ac0:	7b2c77c3          	fmadd.d	fa5,fs8,fs2,fa5
    80003ac4:	3b0c73c3          	fmadd.d	ft7,fs8,fa6,ft7
    80003ac8:	031c7043          	fmadd.d	ft0,fs8,fa7,ft0
    80003acc:	2b46f2c3          	fmadd.d	ft5,fa3,fs4,ft5
    80003ad0:	4b36f4c3          	fmadd.d	fs1,fa3,fs3,fs1
    80003ad4:	4326f443          	fmadd.d	fs0,fa3,fs2,fs0
    80003ad8:	fb06ffc3          	fmadd.d	ft11,fa3,fa6,ft11
    80003adc:	b3427b43          	fmadd.d	fs6,ft4,fs4,fs6
    80003ae0:	f3327f43          	fmadd.d	ft10,ft4,fs3,ft10
    80003ae4:	eb227ec3          	fmadd.d	ft9,ft4,fs2,ft9
    80003ae8:	63027643          	fmadd.d	fa2,ft4,fa6,fa2
    80003aec:	1b4bf1c3          	fmadd.d	ft3,fs7,fs4,ft3
    80003af0:	73127243          	fmadd.d	ft4,ft4,fa7,fa4
    80003af4:	133bf143          	fmadd.d	ft2,fs7,fs3,ft2
    80003af8:	0b2bf0c3          	fmadd.d	ft1,fs7,fs2,ft1
    80003afc:	330bf343          	fmadd.d	ft6,fs7,fa6,ft6
    80003b00:	531bf543          	fmadd.d	fa0,fs7,fa7,fa0
    80003b04:	00fa8e33          	add	t3,s5,a5
    80003b08:	02073807          	fld	fa6,32(a4)
    80003b0c:	3298                	fld	fa4,32(a3)
    80003b0e:	3214                	fld	fa3,32(a2)
    80003b10:	0205bd87          	fld	fs11,32(a1)
    80003b14:	000e3a07          	fld	fs4,0(t3)
    80003b18:	008e3987          	fld	fs3,8(t3)
    80003b1c:	010e3d07          	fld	fs10,16(t3)
    80003b20:	018e3c87          	fld	fs9,24(t3)
    80003b24:	020e3887          	fld	fa7,32(t3)
    80003b28:	e3487e43          	fmadd.d	ft8,fa6,fs4,ft8
    80003b2c:	3b987c43          	fmadd.d	fs8,fa6,fs9,ft7
    80003b30:	ab387ac3          	fmadd.d	fs5,fa6,fs3,fs5
    80003b34:	7ba877c3          	fmadd.d	fa5,fa6,fs10,fa5
    80003b38:	03187043          	fmadd.d	ft0,fa6,fa7,ft0
    80003b3c:	2b46f2c3          	fmadd.d	ft5,fa3,fs4,ft5
    80003b40:	4b36f4c3          	fmadd.d	fs1,fa3,fs3,fs1
    80003b44:	43a6f443          	fmadd.d	fs0,fa3,fs10,fs0
    80003b48:	fb96ffc3          	fmadd.d	ft11,fa3,fs9,ft11
    80003b4c:	b3477b43          	fmadd.d	fs6,fa4,fs4,fs6
    80003b50:	5b16f6c3          	fmadd.d	fa3,fa3,fa7,fa1
    80003b54:	f3377f43          	fmadd.d	ft10,fa4,fs3,ft10
    80003b58:	eba77ec3          	fmadd.d	ft9,fa4,fs10,ft9
    80003b5c:	63977643          	fmadd.d	fa2,fa4,fs9,fa2
    80003b60:	23177243          	fmadd.d	ft4,fa4,fa7,ft4
    80003b64:	1b4dfa43          	fmadd.d	fs4,fs11,fs4,ft3
    80003b68:	133df9c3          	fmadd.d	fs3,fs11,fs3,ft2
    80003b6c:	0badfd43          	fmadd.d	fs10,fs11,fs10,ft1
    80003b70:	339dfcc3          	fmadd.d	fs9,fs11,fs9,ft6
    80003b74:	531df8c3          	fmadd.d	fa7,fs11,fa7,fa0
    80003b78:	01378e33          	add	t3,a5,s3
    80003b7c:	3708                	fld	fa0,40(a4)
    80003b7e:	360c                	fld	fa1,40(a2)
    80003b80:	3698                	fld	fa4,40(a3)
    80003b82:	0285b807          	fld	fa6,40(a1)
    80003b86:	000e3187          	fld	ft3,0(t3)
    80003b8a:	008e3107          	fld	ft2,8(t3)
    80003b8e:	010e3087          	fld	ft1,16(t3)
    80003b92:	018e3307          	fld	ft6,24(t3)
    80003b96:	020e3387          	fld	ft7,32(t3)
    80003b9a:	03070713          	addi	a4,a4,48
    80003b9e:	2a35f943          	fmadd.d	fs2,fa1,ft3,ft5
    80003ba2:	4a25f4c3          	fmadd.d	fs1,fa1,ft2,fs1
    80003ba6:	4215f443          	fmadd.d	fs0,fa1,ft1,fs0
    80003baa:	fa65ffc3          	fmadd.d	ft11,fa1,ft6,ft11
    80003bae:	b2377b43          	fmadd.d	fs6,fa4,ft3,fs6
    80003bb2:	f2277f43          	fmadd.d	ft10,fa4,ft2,ft10
    80003bb6:	ea177ec3          	fmadd.d	ft9,fa4,ft1,ft9
    80003bba:	62677643          	fmadd.d	fa2,fa4,ft6,fa2
    80003bbe:	e2357e43          	fmadd.d	ft8,fa0,ft3,ft8
    80003bc2:	aa257ac3          	fmadd.d	fs5,fa0,ft2,fs5
    80003bc6:	7a1577c3          	fmadd.d	fa5,fa0,ft1,fa5
    80003bca:	c2657c43          	fmadd.d	fs8,fa0,ft6,fs8
    80003bce:	a23871c3          	fmadd.d	ft3,fa6,ft3,fs4
    80003bd2:	9a287143          	fmadd.d	ft2,fa6,ft2,fs3
    80003bd6:	d21870c3          	fmadd.d	ft1,fa6,ft1,fs10
    80003bda:	ca687343          	fmadd.d	ft6,fa6,ft6,fs9
    80003bde:	02757043          	fmadd.d	ft0,fa0,ft7,ft0
    80003be2:	6a75f5c3          	fmadd.d	fa1,fa1,ft7,fa3
    80003be6:	22777743          	fmadd.d	fa4,fa4,ft7,ft4
    80003bea:	8a787843          	fmadd.d	fa6,fa6,ft7,fa7
    80003bee:	97ee                	add	a5,a5,s11
    80003bf0:	03060613          	addi	a2,a2,48
    80003bf4:	03068693          	addi	a3,a3,48
    80003bf8:	03058593          	addi	a1,a1,48
    80003bfc:	d2976ce3          	bltu	a4,s1,80003934 <mm_cb+0x17e4>
    80003c00:	22f78a53          	fmv.d	fs4,fa5
    80003c04:	22c602d3          	fmv.d	ft5,fa2
    80003c08:	238c09d3          	fmv.d	fs3,fs8
    80003c0c:	236b0253          	fmv.d	ft4,fs6
    80003c10:	22318553          	fmv.d	fa0,ft3
    80003c14:	22630653          	fmv.d	fa2,ft6
    80003c18:	230807d3          	fmv.d	fa5,fa6
    80003c1c:	01d387b3          	add	a5,t2,t4
    80003c20:	0924f663          	bgeu	s1,s2,80003cac <mm_cb+0x1b5c>
    80003c24:	8726                	mv	a4,s1
    80003c26:	01a705b3          	add	a1,a4,s10
    80003c2a:	01a58633          	add	a2,a1,s10
    80003c2e:	01a606b3          	add	a3,a2,s10
    80003c32:	00073387          	fld	ft7,0(a4)
    80003c36:	0007bc07          	fld	fs8,0(a5)
    80003c3a:	0087bb87          	fld	fs7,8(a5)
    80003c3e:	0107bb07          	fld	fs6,16(a5)
    80003c42:	0187b887          	fld	fa7,24(a5)
    80003c46:	0207b807          	fld	fa6,32(a5)
    80003c4a:	0005b307          	fld	ft6,0(a1)
    80003c4e:	00063187          	fld	ft3,0(a2)
    80003c52:	2294                	fld	fa3,0(a3)
    80003c54:	0721                	addi	a4,a4,8
    80003c56:	e383fe43          	fmadd.d	ft8,ft7,fs8,ft8
    80003c5a:	ab73fac3          	fmadd.d	fs5,ft7,fs7,fs5
    80003c5e:	a363fa43          	fmadd.d	fs4,ft7,fs6,fs4
    80003c62:	9b13f9c3          	fmadd.d	fs3,ft7,fa7,fs3
    80003c66:	0303f043          	fmadd.d	ft0,ft7,fa6,ft0
    80003c6a:	93837943          	fmadd.d	fs2,ft6,fs8,fs2
    80003c6e:	4b7374c3          	fmadd.d	fs1,ft6,fs7,fs1
    80003c72:	43637443          	fmadd.d	fs0,ft6,fs6,fs0
    80003c76:	fb137fc3          	fmadd.d	ft11,ft6,fa7,ft11
    80003c7a:	5b0375c3          	fmadd.d	fa1,ft6,fa6,fa1
    80003c7e:	2381f243          	fmadd.d	ft4,ft3,fs8,ft4
    80003c82:	f371ff43          	fmadd.d	ft10,ft3,fs7,ft10
    80003c86:	eb61fec3          	fmadd.d	ft9,ft3,fs6,ft9
    80003c8a:	2b11f2c3          	fmadd.d	ft5,ft3,fa7,ft5
    80003c8e:	7301f743          	fmadd.d	fa4,ft3,fa6,fa4
    80003c92:	5386f543          	fmadd.d	fa0,fa3,fs8,fa0
    80003c96:	1376f143          	fmadd.d	ft2,fa3,fs7,ft2
    80003c9a:	0b66f0c3          	fmadd.d	ft1,fa3,fs6,ft1
    80003c9e:	6316f643          	fmadd.d	fa2,fa3,fa7,fa2
    80003ca2:	7b06f7c3          	fmadd.d	fa5,fa3,fa6,fa5
    80003ca6:	97e6                	add	a5,a5,s9
    80003ca8:	f7276fe3          	bltu	a4,s2,80003c26 <mm_cb+0x1ad6>
    80003cac:	01c8b027          	fsd	ft8,0(a7)
    80003cb0:	0158b427          	fsd	fs5,8(a7)
    80003cb4:	0148b827          	fsd	fs4,16(a7)
    80003cb8:	0138bc27          	fsd	fs3,24(a7)
    80003cbc:	0208b027          	fsd	ft0,32(a7)
    80003cc0:	01283027          	fsd	fs2,0(a6)
    80003cc4:	00983427          	fsd	fs1,8(a6)
    80003cc8:	00883827          	fsd	fs0,16(a6)
    80003ccc:	01f83c27          	fsd	ft11,24(a6)
    80003cd0:	02b83027          	fsd	fa1,32(a6)
    80003cd4:	00453027          	fsd	ft4,0(a0)
    80003cd8:	01e53427          	fsd	ft10,8(a0)
    80003cdc:	01d53827          	fsd	ft9,16(a0)
    80003ce0:	00553c27          	fsd	ft5,24(a0)
    80003ce4:	b118                	fsd	fa4,32(a0)
    80003ce6:	00a33027          	fsd	fa0,0(t1)
    80003cea:	00233427          	fsd	ft2,8(t1)
    80003cee:	00133827          	fsd	ft1,16(t1)
    80003cf2:	00c33c27          	fsd	fa2,24(t1)
    80003cf6:	02f33027          	fsd	fa5,32(t1)
    80003cfa:	0f15                	addi	t5,t5,5
    80003cfc:	02888893          	addi	a7,a7,40
    80003d00:	02880813          	addi	a6,a6,40
    80003d04:	02850513          	addi	a0,a0,40
    80003d08:	02830313          	addi	t1,t1,40
    80003d0c:	028e8e93          	addi	t4,t4,40
    80003d10:	bb7f63e3          	bltu	t5,s7,800038b6 <mm_cb+0x1766>
    80003d14:	e9843783          	ld	a5,-360(s0)
    80003d18:	eb043303          	ld	t1,-336(s0)
    80003d1c:	f2043703          	ld	a4,-224(s0)
    80003d20:	01f788b3          	add	a7,a5,t6
    80003d24:	601c                	ld	a5,0(s0)
    80003d26:	f2843803          	ld	a6,-216(s0)
    80003d2a:	e9043583          	ld	a1,-368(s0)
    80003d2e:	e03e                	sd	a5,0(sp)
    80003d30:	e6843783          	ld	a5,-408(s0)
    80003d34:	86da                	mv	a3,s6
    80003d36:	8616                	mv	a2,t0
    80003d38:	0311                	addi	t1,t1,4
    80003d3a:	4511                	li	a0,4
    80003d3c:	e2743423          	sd	t2,-472(s0)
    80003d40:	e3f43823          	sd	t6,-464(s0)
    80003d44:	e2543c23          	sd	t0,-456(s0)
    80003d48:	ea643823          	sd	t1,-336(s0)
    80003d4c:	ab4fe0ef          	jal	ra,80002000 <mm_naive>
    80003d50:	e5043783          	ld	a5,-432(s0)
    80003d54:	e5843703          	ld	a4,-424(s0)
    80003d58:	e3043f83          	ld	t6,-464(s0)
    80003d5c:	9b3e                	add	s6,s6,a5
    80003d5e:	94be                	add	s1,s1,a5
    80003d60:	993e                	add	s2,s2,a5
    80003d62:	9fba                	add	t6,t6,a4
    80003d64:	eb043783          	ld	a5,-336(s0)
    80003d68:	ea043703          	ld	a4,-352(s0)
    80003d6c:	e3843283          	ld	t0,-456(s0)
    80003d70:	e2843383          	ld	t2,-472(s0)
    80003d74:	b2e7e3e3          	bltu	a5,a4,8000389a <mm_cb+0x174a>
    80003d78:	e4043f83          	ld	t6,-448(s0)
    80003d7c:	e8043703          	ld	a4,-384(s0)
    80003d80:	ee843903          	ld	s2,-280(s0)
    80003d84:	ec043483          	ld	s1,-320(s0)
    80003d88:	01f706b3          	add	a3,a4,t6
    80003d8c:	6018                	ld	a4,0(s0)
    80003d8e:	e7043883          	ld	a7,-400(s0)
    80003d92:	f2843803          	ld	a6,-216(s0)
    80003d96:	e03a                	sd	a4,0(sp)
    80003d98:	ee043583          	ld	a1,-288(s0)
    80003d9c:	f2043703          	ld	a4,-224(s0)
    80003da0:	e8843503          	ld	a0,-376(s0)
    80003da4:	87ca                	mv	a5,s2
    80003da6:	8616                	mv	a2,t0
    80003da8:	04e1                	addi	s1,s1,24
    80003daa:	ebf43823          	sd	t6,-336(s0)
    80003dae:	ec943023          	sd	s1,-320(s0)
    80003db2:	a4efe0ef          	jal	ra,80002000 <mm_naive>
    80003db6:	e4843783          	ld	a5,-440(s0)
    80003dba:	eb043f83          	ld	t6,-336(s0)
    80003dbe:	97ca                	add	a5,a5,s2
    80003dc0:	eef43423          	sd	a5,-280(s0)
    80003dc4:	f1843783          	ld	a5,-232(s0)
    80003dc8:	0c0f8f93          	addi	t6,t6,192
    80003dcc:	a6f4ede3          	bltu	s1,a5,80003846 <mm_cb+0x16f6>
    80003dd0:	83d6                	mv	t2,s5
    80003dd2:	82d2                	mv	t0,s4
    80003dd4:	8fce                	mv	t6,s3
    80003dd6:	f0843703          	ld	a4,-248(s0)
    80003dda:	ec843783          	ld	a5,-312(s0)
    80003dde:	0c870713          	addi	a4,a4,200
    80003de2:	f0e43423          	sd	a4,-248(s0)
    80003de6:	ea843703          	ld	a4,-344(s0)
    80003dea:	07e5                	addi	a5,a5,25
    80003dec:	ecf43423          	sd	a5,-312(s0)
    80003df0:	0c870713          	addi	a4,a4,200
    80003df4:	eae43423          	sd	a4,-344(s0)
    80003df8:	ed843703          	ld	a4,-296(s0)
    80003dfc:	9ee7e0e3          	bltu	a5,a4,800037dc <mm_cb+0x168c>
    80003e00:	601c                	ld	a5,0(s0)
    80003e02:	0786                	slli	a5,a5,0x1
    80003e04:	e2f43423          	sd	a5,-472(s0)
    80003e08:	601c                	ld	a5,0(s0)
    80003e0a:	078e                	slli	a5,a5,0x3
    80003e0c:	eef43823          	sd	a5,-272(s0)
    80003e10:	f1043783          	ld	a5,-240(s0)
    80003e14:	fe079863          	bnez	a5,80003604 <mm_cb+0x14b4>
    80003e18:	b045                	j	800036b8 <mm_cb+0x1568>
    80003e1a:	f2843783          	ld	a5,-216(s0)
    80003e1e:	00179813          	slli	a6,a5,0x1
    80003e22:	00379d13          	slli	s10,a5,0x3
    80003e26:	db8fe06f          	j	800023de <mm_cb+0x28e>

0000000080003e2a <mm>:
    80003e2a:	710d                	addi	sp,sp,-352
    80003e2c:	7316                	ld	t1,352(sp)
    80003e2e:	eaa2                	sd	s0,336(sp)
    80003e30:	e12a                	sd	a0,128(sp)
    80003e32:	ee86                	sd	ra,344(sp)
    80003e34:	e6a6                	sd	s1,328(sp)
    80003e36:	e2ca                	sd	s2,320(sp)
    80003e38:	fe4e                	sd	s3,312(sp)
    80003e3a:	fa52                	sd	s4,304(sp)
    80003e3c:	f656                	sd	s5,296(sp)
    80003e3e:	f25a                	sd	s6,288(sp)
    80003e40:	ee5e                	sd	s7,280(sp)
    80003e42:	ea62                	sd	s8,272(sp)
    80003e44:	e666                	sd	s9,264(sp)
    80003e46:	e26a                	sd	s10,256(sp)
    80003e48:	fdee                	sd	s11,248(sp)
    80003e4a:	b5a2                	fsd	fs0,232(sp)
    80003e4c:	b1a6                	fsd	fs1,224(sp)
    80003e4e:	adca                	fsd	fs2,216(sp)
    80003e50:	a9ce                	fsd	fs3,208(sp)
    80003e52:	a5d2                	fsd	fs4,200(sp)
    80003e54:	a1d6                	fsd	fs5,192(sp)
    80003e56:	bd5a                	fsd	fs6,184(sp)
    80003e58:	b95e                	fsd	fs7,176(sp)
    80003e5a:	b562                	fsd	fs8,168(sp)
    80003e5c:	b166                	fsd	fs9,160(sp)
    80003e5e:	842a                	mv	s0,a0
    80003e60:	e09a                	sd	t1,64(sp)
    80003e62:	e52e                	sd	a1,136(sp)
    80003e64:	f432                	sd	a2,40(sp)
    80003e66:	e936                	sd	a3,144(sp)
    80003e68:	f83a                	sd	a4,48(sp)
    80003e6a:	e4be                	sd	a5,72(sp)
    80003e6c:	fc42                	sd	a6,56(sp)
    80003e6e:	03000513          	li	a0,48
    80003e72:	ed46                	sd	a7,152(sp)
    80003e74:	56856663          	bltu	a0,s0,800043e0 <mm+0x5b6>
    80003e78:	8e3e                	mv	t3,a5
    80003e7a:	03200793          	li	a5,50
    80003e7e:	56b7e163          	bltu	a5,a1,800043e0 <mm+0x5b6>
    80003e82:	84b2                	mv	s1,a2
    80003e84:	54c56e63          	bltu	a0,a2,800043e0 <mm+0x5b6>
    80003e88:	4795                	li	a5,5
    80003e8a:	02f5dd33          	divu	s10,a1,a5
    80003e8e:	ffc47e93          	andi	t4,s0,-4
    80003e92:	00331513          	slli	a0,t1,0x3
    80003e96:	f8aa                	sd	a0,112(sp)
    80003e98:	00371413          	slli	s0,a4,0x3
    80003e9c:	853a                	mv	a0,a4
    80003e9e:	e8f6                	sd	t4,80(sp)
    80003ea0:	002d1713          	slli	a4,s10,0x2
    80003ea4:	9d3a                	add	s10,s10,a4
    80003ea6:	4e0e8063          	beqz	t4,80004386 <mm+0x55c>
    80003eaa:	4d99                	li	s11,6
    80003eac:	03b4ddb3          	divu	s11,s1,s11
    80003eb0:	00181a13          	slli	s4,a6,0x1
    80003eb4:	9a42                	add	s4,s4,a6
    80003eb6:	004a1a93          	slli	s5,s4,0x4
    80003eba:	003d1713          	slli	a4,s10,0x3
    80003ebe:	00281c13          	slli	s8,a6,0x2
    80003ec2:	fcba                	sd	a4,120(sp)
    80003ec4:	9772                	add	a4,a4,t3
    80003ec6:	00349993          	slli	s3,s1,0x3
    80003eca:	9c42                	add	s8,s8,a6
    80003ecc:	f0ba                	sd	a4,96(sp)
    80003ece:	00531713          	slli	a4,t1,0x5
    80003ed2:	00381493          	slli	s1,a6,0x3
    80003ed6:	00481b13          	slli	s6,a6,0x4
    80003eda:	0a0e                	slli	s4,s4,0x3
    80003edc:	00581b93          	slli	s7,a6,0x5
    80003ee0:	0c0e                	slli	s8,s8,0x3
    80003ee2:	00551293          	slli	t0,a0,0x5
    80003ee6:	8cb6                	mv	s9,a3
    80003ee8:	99b6                	add	s3,s3,a3
    80003eea:	f4ba                	sd	a4,104(sp)
    80003eec:	8fc6                	mv	t6,a7
    80003eee:	4381                	li	t2,0
    80003ef0:	02f5f7b3          	remu	a5,a1,a5
    80003ef4:	001d9913          	slli	s2,s11,0x1
    80003ef8:	996e                	add	s2,s2,s11
    80003efa:	0912                	slli	s2,s2,0x4
    80003efc:	9936                	add	s2,s2,a3
    80003efe:	03ba8db3          	mul	s11,s5,s11
    80003f02:	ecbe                	sd	a5,88(sp)
    80003f04:	440d0463          	beqz	s10,8000434c <mm+0x522>
    80003f08:	77c6                	ld	a5,112(sp)
    80003f0a:	6ea6                	ld	t4,72(sp)
    80003f0c:	88fe                	mv	a7,t6
    80003f0e:	00ff8833          	add	a6,t6,a5
    80003f12:	00f80533          	add	a0,a6,a5
    80003f16:	00f50333          	add	t1,a0,a5
    80003f1a:	4f01                	li	t5,0
    80003f1c:	0008be07          	fld	ft8,0(a7)
    80003f20:	0088ba87          	fld	fs5,8(a7)
    80003f24:	0108ba07          	fld	fs4,16(a7)
    80003f28:	0188b987          	fld	fs3,24(a7)
    80003f2c:	0208b007          	fld	ft0,32(a7)
    80003f30:	00083907          	fld	fs2,0(a6)
    80003f34:	00883487          	fld	fs1,8(a6)
    80003f38:	01083407          	fld	fs0,16(a6)
    80003f3c:	01883f87          	fld	ft11,24(a6)
    80003f40:	02083587          	fld	fa1,32(a6)
    80003f44:	00053207          	fld	ft4,0(a0)
    80003f48:	00853f07          	fld	ft10,8(a0)
    80003f4c:	01053e87          	fld	ft9,16(a0)
    80003f50:	01853287          	fld	ft5,24(a0)
    80003f54:	3118                	fld	fa4,32(a0)
    80003f56:	00033507          	fld	fa0,0(t1)
    80003f5a:	00833107          	fld	ft2,8(t1)
    80003f5e:	01033087          	fld	ft1,16(t1)
    80003f62:	01833607          	fld	fa2,24(t1)
    80003f66:	02033787          	fld	fa5,32(t1)
    80003f6a:	87f6                	mv	a5,t4
    80003f6c:	2f2cf463          	bgeu	s9,s2,80004254 <mm+0x42a>
    80003f70:	008c8633          	add	a2,s9,s0
    80003f74:	008606b3          	add	a3,a2,s0
    80003f78:	008685b3          	add	a1,a3,s0
    80003f7c:	8766                	mv	a4,s9
    80003f7e:	00073c07          	fld	fs8,0(a4)
    80003f82:	00063b87          	fld	fs7,0(a2)
    80003f86:	2294                	fld	fa3,0(a3)
    80003f88:	0005b307          	fld	ft6,0(a1)
    80003f8c:	0007bb07          	fld	fs6,0(a5)
    80003f90:	0087b887          	fld	fa7,8(a5)
    80003f94:	0107b807          	fld	fa6,16(a5)
    80003f98:	0187b187          	fld	ft3,24(a5)
    80003f9c:	0207b387          	fld	ft7,32(a5)
    80003fa0:	e36c7e43          	fmadd.d	ft8,fs8,fs6,ft8
    80003fa4:	ab1c7ac3          	fmadd.d	fs5,fs8,fa7,fs5
    80003fa8:	a30c7a43          	fmadd.d	fs4,fs8,fa6,fs4
    80003fac:	9a3c79c3          	fmadd.d	fs3,fs8,ft3,fs3
    80003fb0:	027c7043          	fmadd.d	ft0,fs8,ft7,ft0
    80003fb4:	936bf943          	fmadd.d	fs2,fs7,fs6,fs2
    80003fb8:	4b1bf4c3          	fmadd.d	fs1,fs7,fa7,fs1
    80003fbc:	430bf443          	fmadd.d	fs0,fs7,fa6,fs0
    80003fc0:	fa3bffc3          	fmadd.d	ft11,fs7,ft3,ft11
    80003fc4:	5a7bf5c3          	fmadd.d	fa1,fs7,ft7,fa1
    80003fc8:	2366f243          	fmadd.d	ft4,fa3,fs6,ft4
    80003fcc:	f316ff43          	fmadd.d	ft10,fa3,fa7,ft10
    80003fd0:	eb06fec3          	fmadd.d	ft9,fa3,fa6,ft9
    80003fd4:	2a36f2c3          	fmadd.d	ft5,fa3,ft3,ft5
    80003fd8:	7276f743          	fmadd.d	fa4,fa3,ft7,fa4
    80003fdc:	53637543          	fmadd.d	fa0,ft6,fs6,fa0
    80003fe0:	13137143          	fmadd.d	ft2,ft6,fa7,ft2
    80003fe4:	0b0370c3          	fmadd.d	ft1,ft6,fa6,ft1
    80003fe8:	62337643          	fmadd.d	fa2,ft6,ft3,fa2
    80003fec:	7a737343          	fmadd.d	ft6,ft6,ft7,fa5
    80003ff0:	00f48e33          	add	t3,s1,a5
    80003ff4:	00873c07          	fld	fs8,8(a4)
    80003ff8:	00863b87          	fld	fs7,8(a2)
    80003ffc:	0086b187          	fld	ft3,8(a3)
    80004000:	259c                	fld	fa5,8(a1)
    80004002:	000e3b07          	fld	fs6,0(t3)
    80004006:	008e3887          	fld	fa7,8(t3)
    8000400a:	010e3807          	fld	fa6,16(t3)
    8000400e:	018e3387          	fld	ft7,24(t3)
    80004012:	020e3687          	fld	fa3,32(t3)
    80004016:	e36c7e43          	fmadd.d	ft8,fs8,fs6,ft8
    8000401a:	ab1c7ac3          	fmadd.d	fs5,fs8,fa7,fs5
    8000401e:	a30c7a43          	fmadd.d	fs4,fs8,fa6,fs4
    80004022:	9a7c79c3          	fmadd.d	fs3,fs8,ft7,fs3
    80004026:	02dc7043          	fmadd.d	ft0,fs8,fa3,ft0
    8000402a:	936bf943          	fmadd.d	fs2,fs7,fs6,fs2
    8000402e:	4b1bf4c3          	fmadd.d	fs1,fs7,fa7,fs1
    80004032:	430bf443          	fmadd.d	fs0,fs7,fa6,fs0
    80004036:	fa7bffc3          	fmadd.d	ft11,fs7,ft7,ft11
    8000403a:	5adbf5c3          	fmadd.d	fa1,fs7,fa3,fa1
    8000403e:	2361f243          	fmadd.d	ft4,ft3,fs6,ft4
    80004042:	f311ff43          	fmadd.d	ft10,ft3,fa7,ft10
    80004046:	eb01fec3          	fmadd.d	ft9,ft3,fa6,ft9
    8000404a:	2a71f2c3          	fmadd.d	ft5,ft3,ft7,ft5
    8000404e:	72d1f743          	fmadd.d	fa4,ft3,fa3,fa4
    80004052:	5367f543          	fmadd.d	fa0,fa5,fs6,fa0
    80004056:	1317f143          	fmadd.d	ft2,fa5,fa7,ft2
    8000405a:	0b07f0c3          	fmadd.d	ft1,fa5,fa6,ft1
    8000405e:	6277f643          	fmadd.d	fa2,fa5,ft7,fa2
    80004062:	32d7f7c3          	fmadd.d	fa5,fa5,fa3,ft6
    80004066:	00fb0e33          	add	t3,s6,a5
    8000406a:	01073c07          	fld	fs8,16(a4)
    8000406e:	01063b87          	fld	fs7,16(a2)
    80004072:	0106b187          	fld	ft3,16(a3)
    80004076:	0105b307          	fld	ft6,16(a1)
    8000407a:	000e3b07          	fld	fs6,0(t3)
    8000407e:	008e3887          	fld	fa7,8(t3)
    80004082:	010e3807          	fld	fa6,16(t3)
    80004086:	018e3387          	fld	ft7,24(t3)
    8000408a:	020e3687          	fld	fa3,32(t3)
    8000408e:	e36c7e43          	fmadd.d	ft8,fs8,fs6,ft8
    80004092:	ab1c7ac3          	fmadd.d	fs5,fs8,fa7,fs5
    80004096:	72d1f743          	fmadd.d	fa4,ft3,fa3,fa4
    8000409a:	a30c7a43          	fmadd.d	fs4,fs8,fa6,fs4
    8000409e:	9a7c79c3          	fmadd.d	fs3,fs8,ft7,fs3
    800040a2:	02dc7043          	fmadd.d	ft0,fs8,fa3,ft0
    800040a6:	936bf943          	fmadd.d	fs2,fs7,fs6,fs2
    800040aa:	4b1bf4c3          	fmadd.d	fs1,fs7,fa7,fs1
    800040ae:	430bf443          	fmadd.d	fs0,fs7,fa6,fs0
    800040b2:	fa7bffc3          	fmadd.d	ft11,fs7,ft7,ft11
    800040b6:	5adbf5c3          	fmadd.d	fa1,fs7,fa3,fa1
    800040ba:	2361f243          	fmadd.d	ft4,ft3,fs6,ft4
    800040be:	f311ff43          	fmadd.d	ft10,ft3,fa7,ft10
    800040c2:	eb01fec3          	fmadd.d	ft9,ft3,fa6,ft9
    800040c6:	2a71f2c3          	fmadd.d	ft5,ft3,ft7,ft5
    800040ca:	53637543          	fmadd.d	fa0,ft6,fs6,fa0
    800040ce:	13137143          	fmadd.d	ft2,ft6,fa7,ft2
    800040d2:	0b0370c3          	fmadd.d	ft1,ft6,fa6,ft1
    800040d6:	62737643          	fmadd.d	fa2,ft6,ft7,fa2
    800040da:	7ad377c3          	fmadd.d	fa5,ft6,fa3,fa5
    800040de:	01478e33          	add	t3,a5,s4
    800040e2:	01873c07          	fld	fs8,24(a4)
    800040e6:	000e3887          	fld	fa7,0(t3)
    800040ea:	008e3807          	fld	fa6,8(t3)
    800040ee:	010e3387          	fld	ft7,16(t3)
    800040f2:	018e3687          	fld	fa3,24(t3)
    800040f6:	020e3307          	fld	ft6,32(t3)
    800040fa:	01863b87          	fld	fs7,24(a2)
    800040fe:	0185bb07          	fld	fs6,24(a1)
    80004102:	0186b187          	fld	ft3,24(a3)
    80004106:	e31c7e43          	fmadd.d	ft8,fs8,fa7,ft8
    8000410a:	531b7543          	fmadd.d	fa0,fs6,fa7,fa0
    8000410e:	130b7143          	fmadd.d	ft2,fs6,fa6,ft2
    80004112:	0a7b70c3          	fmadd.d	ft1,fs6,ft7,ft1
    80004116:	62db7643          	fmadd.d	fa2,fs6,fa3,fa2
    8000411a:	7a6b77c3          	fmadd.d	fa5,fs6,ft6,fa5
    8000411e:	ab0c7ac3          	fmadd.d	fs5,fs8,fa6,fs5
    80004122:	a27c7a43          	fmadd.d	fs4,fs8,ft7,fs4
    80004126:	9adc79c3          	fmadd.d	fs3,fs8,fa3,fs3
    8000412a:	026c7043          	fmadd.d	ft0,fs8,ft6,ft0
    8000412e:	931bf943          	fmadd.d	fs2,fs7,fa7,fs2
    80004132:	4b0bf4c3          	fmadd.d	fs1,fs7,fa6,fs1
    80004136:	427bf443          	fmadd.d	fs0,fs7,ft7,fs0
    8000413a:	fadbffc3          	fmadd.d	ft11,fs7,fa3,ft11
    8000413e:	5a6bf5c3          	fmadd.d	fa1,fs7,ft6,fa1
    80004142:	2311f243          	fmadd.d	ft4,ft3,fa7,ft4
    80004146:	f301ff43          	fmadd.d	ft10,ft3,fa6,ft10
    8000414a:	ea71fec3          	fmadd.d	ft9,ft3,ft7,ft9
    8000414e:	2ad1f2c3          	fmadd.d	ft5,ft3,fa3,ft5
    80004152:	7261f1c3          	fmadd.d	ft3,ft3,ft6,fa4
    80004156:	00fb8e33          	add	t3,s7,a5
    8000415a:	02073387          	fld	ft7,32(a4)
    8000415e:	3218                	fld	fa4,32(a2)
    80004160:	3294                	fld	fa3,32(a3)
    80004162:	0205bc87          	fld	fs9,32(a1)
    80004166:	010e3c07          	fld	fs8,16(t3)
    8000416a:	000e3887          	fld	fa7,0(t3)
    8000416e:	008e3807          	fld	fa6,8(t3)
    80004172:	018e3b87          	fld	fs7,24(t3)
    80004176:	020e3307          	fld	ft6,32(t3)
    8000417a:	e313fe43          	fmadd.d	ft8,ft7,fa7,ft8
    8000417e:	ab03fac3          	fmadd.d	fs5,ft7,fa6,fs5
    80004182:	a383fa43          	fmadd.d	fs4,ft7,fs8,fs4
    80004186:	9b73f9c3          	fmadd.d	fs3,ft7,fs7,fs3
    8000418a:	0263f043          	fmadd.d	ft0,ft7,ft6,ft0
    8000418e:	93177943          	fmadd.d	fs2,fa4,fa7,fs2
    80004192:	4b0774c3          	fmadd.d	fs1,fa4,fa6,fs1
    80004196:	43877443          	fmadd.d	fs0,fa4,fs8,fs0
    8000419a:	fb777fc3          	fmadd.d	ft11,fa4,fs7,ft11
    8000419e:	5a6775c3          	fmadd.d	fa1,fa4,ft6,fa1
    800041a2:	2316f243          	fmadd.d	ft4,fa3,fa7,ft4
    800041a6:	f306ff43          	fmadd.d	ft10,fa3,fa6,ft10
    800041aa:	eb86fec3          	fmadd.d	ft9,fa3,fs8,ft9
    800041ae:	2b76f2c3          	fmadd.d	ft5,fa3,fs7,ft5
    800041b2:	0b8cf3c3          	fmadd.d	ft7,fs9,fs8,ft1
    800041b6:	1a66f6c3          	fmadd.d	fa3,fa3,ft6,ft3
    800041ba:	531cf8c3          	fmadd.d	fa7,fs9,fa7,fa0
    800041be:	130cf843          	fmadd.d	fa6,fs9,fa6,ft2
    800041c2:	637cfbc3          	fmadd.d	fs7,fs9,fs7,fa2
    800041c6:	7a6cf343          	fmadd.d	ft6,fs9,ft6,fa5
    800041ca:	01878e33          	add	t3,a5,s8
    800041ce:	02873c07          	fld	fs8,40(a4)
    800041d2:	02863b07          	fld	fs6,40(a2)
    800041d6:	3698                	fld	fa4,40(a3)
    800041d8:	359c                	fld	fa5,40(a1)
    800041da:	000e3507          	fld	fa0,0(t3)
    800041de:	008e3107          	fld	ft2,8(t3)
    800041e2:	010e3087          	fld	ft1,16(t3)
    800041e6:	018e3607          	fld	fa2,24(t3)
    800041ea:	020e3187          	fld	ft3,32(t3)
    800041ee:	03070713          	addi	a4,a4,48
    800041f2:	22a77243          	fmadd.d	ft4,fa4,fa0,ft4
    800041f6:	f2277f43          	fmadd.d	ft10,fa4,ft2,ft10
    800041fa:	ea177ec3          	fmadd.d	ft9,fa4,ft1,ft9
    800041fe:	2ac772c3          	fmadd.d	ft5,fa4,fa2,ft5
    80004202:	e2ac7e43          	fmadd.d	ft8,fs8,fa0,ft8
    80004206:	aa2c7ac3          	fmadd.d	fs5,fs8,ft2,fs5
    8000420a:	a21c7a43          	fmadd.d	fs4,fs8,ft1,fs4
    8000420e:	9acc79c3          	fmadd.d	fs3,fs8,fa2,fs3
    80004212:	92ab7943          	fmadd.d	fs2,fs6,fa0,fs2
    80004216:	4a2b74c3          	fmadd.d	fs1,fs6,ft2,fs1
    8000421a:	421b7443          	fmadd.d	fs0,fs6,ft1,fs0
    8000421e:	facb7fc3          	fmadd.d	ft11,fs6,fa2,ft11
    80004222:	8aa7f543          	fmadd.d	fa0,fa5,fa0,fa7
    80004226:	8227f143          	fmadd.d	ft2,fa5,ft2,fa6
    8000422a:	3a17f0c3          	fmadd.d	ft1,fa5,ft1,ft7
    8000422e:	bac7f643          	fmadd.d	fa2,fa5,fa2,fs7
    80004232:	023c7043          	fmadd.d	ft0,fs8,ft3,ft0
    80004236:	5a3b75c3          	fmadd.d	fa1,fs6,ft3,fa1
    8000423a:	6a377743          	fmadd.d	fa4,fa4,ft3,fa3
    8000423e:	3237f7c3          	fmadd.d	fa5,fa5,ft3,ft6
    80004242:	97d6                	add	a5,a5,s5
    80004244:	03060613          	addi	a2,a2,48
    80004248:	03068693          	addi	a3,a3,48
    8000424c:	03058593          	addi	a1,a1,48
    80004250:	d32767e3          	bltu	a4,s2,80003f7e <mm+0x154>
    80004254:	01dd87b3          	add	a5,s11,t4
    80004258:	09397663          	bgeu	s2,s3,800042e4 <mm+0x4ba>
    8000425c:	874a                	mv	a4,s2
    8000425e:	008705b3          	add	a1,a4,s0
    80004262:	00858633          	add	a2,a1,s0
    80004266:	008606b3          	add	a3,a2,s0
    8000426a:	00073387          	fld	ft7,0(a4)
    8000426e:	0007bc07          	fld	fs8,0(a5)
    80004272:	0087bb87          	fld	fs7,8(a5)
    80004276:	0107bb07          	fld	fs6,16(a5)
    8000427a:	0187b887          	fld	fa7,24(a5)
    8000427e:	0207b807          	fld	fa6,32(a5)
    80004282:	0005b307          	fld	ft6,0(a1)
    80004286:	00063187          	fld	ft3,0(a2)
    8000428a:	2294                	fld	fa3,0(a3)
    8000428c:	0721                	addi	a4,a4,8
    8000428e:	e383fe43          	fmadd.d	ft8,ft7,fs8,ft8
    80004292:	ab73fac3          	fmadd.d	fs5,ft7,fs7,fs5
    80004296:	a363fa43          	fmadd.d	fs4,ft7,fs6,fs4
    8000429a:	9b13f9c3          	fmadd.d	fs3,ft7,fa7,fs3
    8000429e:	0303f043          	fmadd.d	ft0,ft7,fa6,ft0
    800042a2:	93837943          	fmadd.d	fs2,ft6,fs8,fs2
    800042a6:	4b7374c3          	fmadd.d	fs1,ft6,fs7,fs1
    800042aa:	43637443          	fmadd.d	fs0,ft6,fs6,fs0
    800042ae:	fb137fc3          	fmadd.d	ft11,ft6,fa7,ft11
    800042b2:	5b0375c3          	fmadd.d	fa1,ft6,fa6,fa1
    800042b6:	2381f243          	fmadd.d	ft4,ft3,fs8,ft4
    800042ba:	f371ff43          	fmadd.d	ft10,ft3,fs7,ft10
    800042be:	eb61fec3          	fmadd.d	ft9,ft3,fs6,ft9
    800042c2:	2b11f2c3          	fmadd.d	ft5,ft3,fa7,ft5
    800042c6:	7301f743          	fmadd.d	fa4,ft3,fa6,fa4
    800042ca:	5386f543          	fmadd.d	fa0,fa3,fs8,fa0
    800042ce:	1376f143          	fmadd.d	ft2,fa3,fs7,ft2
    800042d2:	0b66f0c3          	fmadd.d	ft1,fa3,fs6,ft1
    800042d6:	6316f643          	fmadd.d	fa2,fa3,fa7,fa2
    800042da:	7b06f7c3          	fmadd.d	fa5,fa3,fa6,fa5
    800042de:	97a6                	add	a5,a5,s1
    800042e0:	f7376fe3          	bltu	a4,s3,8000425e <mm+0x434>
    800042e4:	01c8b027          	fsd	ft8,0(a7)
    800042e8:	0158b427          	fsd	fs5,8(a7)
    800042ec:	0148b827          	fsd	fs4,16(a7)
    800042f0:	0138bc27          	fsd	fs3,24(a7)
    800042f4:	0208b027          	fsd	ft0,32(a7)
    800042f8:	01283027          	fsd	fs2,0(a6)
    800042fc:	00983427          	fsd	fs1,8(a6)
    80004300:	00883827          	fsd	fs0,16(a6)
    80004304:	01f83c27          	fsd	ft11,24(a6)
    80004308:	02b83027          	fsd	fa1,32(a6)
    8000430c:	00453027          	fsd	ft4,0(a0)
    80004310:	01e53427          	fsd	ft10,8(a0)
    80004314:	01d53827          	fsd	ft9,16(a0)
    80004318:	00553c27          	fsd	ft5,24(a0)
    8000431c:	b118                	fsd	fa4,32(a0)
    8000431e:	00a33027          	fsd	fa0,0(t1)
    80004322:	00233427          	fsd	ft2,8(t1)
    80004326:	00133827          	fsd	ft1,16(t1)
    8000432a:	00c33c27          	fsd	fa2,24(t1)
    8000432e:	02f33027          	fsd	fa5,32(t1)
    80004332:	0f15                	addi	t5,t5,5
    80004334:	02888893          	addi	a7,a7,40
    80004338:	02880813          	addi	a6,a6,40
    8000433c:	02850513          	addi	a0,a0,40
    80004340:	02830313          	addi	t1,t1,40
    80004344:	028e8e93          	addi	t4,t4,40
    80004348:	bdaf6ae3          	bltu	t5,s10,80003f1c <mm+0xf2>
    8000434c:	77e6                	ld	a5,120(sp)
    8000434e:	7862                	ld	a6,56(sp)
    80004350:	7742                	ld	a4,48(sp)
    80004352:	01f788b3          	add	a7,a5,t6
    80004356:	6786                	ld	a5,64(sp)
    80004358:	7622                	ld	a2,40(sp)
    8000435a:	65e6                	ld	a1,88(sp)
    8000435c:	e03e                	sd	a5,0(sp)
    8000435e:	7786                	ld	a5,96(sp)
    80004360:	0391                	addi	t2,t2,4
    80004362:	86e6                	mv	a3,s9
    80004364:	4511                	li	a0,4
    80004366:	f016                	sd	t0,32(sp)
    80004368:	ec7e                	sd	t6,24(sp)
    8000436a:	e81e                	sd	t2,16(sp)
    8000436c:	c95fd0ef          	jal	ra,80002000 <mm_naive>
    80004370:	77a6                	ld	a5,104(sp)
    80004372:	6fe2                	ld	t6,24(sp)
    80004374:	7282                	ld	t0,32(sp)
    80004376:	63c2                	ld	t2,16(sp)
    80004378:	9fbe                	add	t6,t6,a5
    8000437a:	67c6                	ld	a5,80(sp)
    8000437c:	9c96                	add	s9,s9,t0
    8000437e:	9916                	add	s2,s2,t0
    80004380:	9996                	add	s3,s3,t0
    80004382:	b8f3e1e3          	bltu	t2,a5,80003f04 <mm+0xda>
    80004386:	66c6                	ld	a3,80(sp)
    80004388:	77c6                	ld	a5,112(sp)
    8000438a:	650a                	ld	a0,128(sp)
    8000438c:	7862                	ld	a6,56(sp)
    8000438e:	02f688b3          	mul	a7,a3,a5
    80004392:	8d15                	sub	a0,a0,a3
    80004394:	6786                	ld	a5,64(sp)
    80004396:	7742                	ld	a4,48(sp)
    80004398:	7622                	ld	a2,40(sp)
    8000439a:	f2be                	sd	a5,352(sp)
    8000439c:	65aa                	ld	a1,136(sp)
    8000439e:	67a6                	ld	a5,72(sp)
    800043a0:	60f6                	ld	ra,344(sp)
    800043a2:	64b6                	ld	s1,328(sp)
    800043a4:	028686b3          	mul	a3,a3,s0
    800043a8:	646a                	ld	s0,152(sp)
    800043aa:	6916                	ld	s2,320(sp)
    800043ac:	79f2                	ld	s3,312(sp)
    800043ae:	98a2                	add	a7,a7,s0
    800043b0:	644a                	ld	s0,144(sp)
    800043b2:	7a52                	ld	s4,304(sp)
    800043b4:	7ab2                	ld	s5,296(sp)
    800043b6:	7b12                	ld	s6,288(sp)
    800043b8:	6bf2                	ld	s7,280(sp)
    800043ba:	96a2                	add	a3,a3,s0
    800043bc:	6456                	ld	s0,336(sp)
    800043be:	6c52                	ld	s8,272(sp)
    800043c0:	6cb2                	ld	s9,264(sp)
    800043c2:	6d12                	ld	s10,256(sp)
    800043c4:	7dee                	ld	s11,248(sp)
    800043c6:	342e                	fld	fs0,232(sp)
    800043c8:	348e                	fld	fs1,224(sp)
    800043ca:	296e                	fld	fs2,216(sp)
    800043cc:	29ce                	fld	fs3,208(sp)
    800043ce:	2a2e                	fld	fs4,200(sp)
    800043d0:	2a8e                	fld	fs5,192(sp)
    800043d2:	3b6a                	fld	fs6,184(sp)
    800043d4:	3bca                	fld	fs7,176(sp)
    800043d6:	3c2a                	fld	fs8,168(sp)
    800043d8:	3c8a                	fld	fs9,160(sp)
    800043da:	6135                	addi	sp,sp,352
    800043dc:	c25fd06f          	j	80002000 <mm_naive>
    800043e0:	6786                	ld	a5,64(sp)
    800043e2:	6456                	ld	s0,336(sp)
    800043e4:	68ea                	ld	a7,152(sp)
    800043e6:	f2be                	sd	a5,352(sp)
    800043e8:	7862                	ld	a6,56(sp)
    800043ea:	67a6                	ld	a5,72(sp)
    800043ec:	7742                	ld	a4,48(sp)
    800043ee:	66ca                	ld	a3,144(sp)
    800043f0:	7622                	ld	a2,40(sp)
    800043f2:	65aa                	ld	a1,136(sp)
    800043f4:	650a                	ld	a0,128(sp)
    800043f6:	60f6                	ld	ra,344(sp)
    800043f8:	64b6                	ld	s1,328(sp)
    800043fa:	6916                	ld	s2,320(sp)
    800043fc:	79f2                	ld	s3,312(sp)
    800043fe:	7a52                	ld	s4,304(sp)
    80004400:	7ab2                	ld	s5,296(sp)
    80004402:	7b12                	ld	s6,288(sp)
    80004404:	6bf2                	ld	s7,280(sp)
    80004406:	6c52                	ld	s8,272(sp)
    80004408:	6cb2                	ld	s9,264(sp)
    8000440a:	6d12                	ld	s10,256(sp)
    8000440c:	7dee                	ld	s11,248(sp)
    8000440e:	342e                	fld	fs0,232(sp)
    80004410:	348e                	fld	fs1,224(sp)
    80004412:	296e                	fld	fs2,216(sp)
    80004414:	29ce                	fld	fs3,208(sp)
    80004416:	2a2e                	fld	fs4,200(sp)
    80004418:	2a8e                	fld	fs5,192(sp)
    8000441a:	3b6a                	fld	fs6,184(sp)
    8000441c:	3bca                	fld	fs7,176(sp)
    8000441e:	3c2a                	fld	fs8,168(sp)
    80004420:	3c8a                	fld	fs9,160(sp)
    80004422:	6135                	addi	sp,sp,352
    80004424:	d2dfd06f          	j	80002150 <mm_cb>

0000000080004428 <barrier>:
    80004428:	0ff0000f          	fence
    8000442c:	00022703          	lw	a4,0(tp) # 0 <threadsense.2>
    80004430:	a5018693          	addi	a3,gp,-1456 # 800051e0 <count.1>
    80004434:	4605                	li	a2,1
    80004436:	00173713          	seqz	a4,a4
    8000443a:	00e22023          	sw	a4,0(tp) # 0 <threadsense.2>
    8000443e:	0f50000f          	fence	iorw,ow
    80004442:	04c6a72f          	amoadd.w.aq	a4,a2,(a3)
    80004446:	357d                	addiw	a0,a0,-1
    80004448:	2701                	sext.w	a4,a4
    8000444a:	00e50d63          	beq	a0,a4,80004464 <barrier+0x3c>
    8000444e:	00022683          	lw	a3,0(tp) # 0 <threadsense.2>
    80004452:	a4c18713          	addi	a4,gp,-1460 # 800051dc <sense.0>
    80004456:	431c                	lw	a5,0(a4)
    80004458:	2781                	sext.w	a5,a5
    8000445a:	fed79ee3          	bne	a5,a3,80004456 <barrier+0x2e>
    8000445e:	0ff0000f          	fence
    80004462:	8082                	ret
    80004464:	00022783          	lw	a5,0(tp) # 0 <threadsense.2>
    80004468:	a401a823          	sw	zero,-1456(gp) # 800051e0 <count.1>
    8000446c:	a4f1a623          	sw	a5,-1460(gp) # 800051dc <sense.0>
    80004470:	b7fd                	j	8000445e <barrier+0x36>

0000000080004472 <thread_entry>:
    80004472:	7159                	addi	sp,sp,-112
    80004474:	77fd                	lui	a5,0xfffff
    80004476:	f0a2                	sd	s0,96(sp)
    80004478:	eca6                	sd	s1,88(sp)
    8000447a:	e8ca                	sd	s2,80(sp)
    8000447c:	e4ce                	sd	s3,72(sp)
    8000447e:	e0d2                	sd	s4,64(sp)
    80004480:	fc56                	sd	s5,56(sp)
    80004482:	f486                	sd	ra,104(sp)
    80004484:	f85a                	sd	s6,48(sp)
    80004486:	f45e                	sd	s7,40(sp)
    80004488:	f062                	sd	s8,32(sp)
    8000448a:	ec66                	sd	s9,24(sp)
    8000448c:	e86a                	sd	s10,16(sp)
    8000448e:	1880                	addi	s0,sp,112
    80004490:	e0078713          	addi	a4,a5,-512 # ffffffffffffee00 <__global_pointer$+0xffffffff7fff9670>
    80004494:	d4078793          	addi	a5,a5,-704
    80004498:	913a                	add	sp,sp,a4
    8000449a:	01010913          	addi	s2,sp,16
    8000449e:	913e                	add	sp,sp,a5
    800044a0:	01010993          	addi	s3,sp,16
    800044a4:	6805                	lui	a6,0x1
    800044a6:	913e                	add	sp,sp,a5
    800044a8:	37ab77b7          	lui	a5,0x37ab7
    800044ac:	8aae                	mv	s5,a1
    800044ae:	2c080813          	addi	a6,a6,704 # 12c0 <buflen.1+0x1240>
    800044b2:	078a                	slli	a5,a5,0x2
    800044b4:	4585                	li	a1,1
    800044b6:	8a2a                	mv	s4,a0
    800044b8:	0804                	addi	s1,sp,16
    800044ba:	0c090513          	addi	a0,s2,192
    800044be:	984a                	add	a6,a6,s2
    800044c0:	eef78793          	addi	a5,a5,-273 # 37ab6eef <buflen.1+0x37ab6e6f>
    800044c4:	15fa                	slli	a1,a1,0x3e
    800044c6:	f4050613          	addi	a2,a0,-192
    800044ca:	0017d693          	srli	a3,a5,0x1
    800044ce:	00f6c733          	xor	a4,a3,a5
    800044d2:	177a                	slli	a4,a4,0x3e
    800044d4:	8f6d                	and	a4,a4,a1
    800044d6:	00d767b3          	or	a5,a4,a3
    800044da:	0017d693          	srli	a3,a5,0x1
    800044de:	00f6c733          	xor	a4,a3,a5
    800044e2:	177a                	slli	a4,a4,0x3e
    800044e4:	8f6d                	and	a4,a4,a1
    800044e6:	d227f7d3          	fcvt.d.l	fa5,a5
    800044ea:	00d767b3          	or	a5,a4,a3
    800044ee:	0017d693          	srli	a3,a5,0x1
    800044f2:	00f6c733          	xor	a4,a3,a5
    800044f6:	177a                	slli	a4,a4,0x3e
    800044f8:	8f6d                	and	a4,a4,a1
    800044fa:	a21c                	fsd	fa5,0(a2)
    800044fc:	d227f7d3          	fcvt.d.l	fa5,a5
    80004500:	00d767b3          	or	a5,a4,a3
    80004504:	0017d693          	srli	a3,a5,0x1
    80004508:	00f6c733          	xor	a4,a3,a5
    8000450c:	177a                	slli	a4,a4,0x3e
    8000450e:	8f6d                	and	a4,a4,a1
    80004510:	a61c                	fsd	fa5,8(a2)
    80004512:	d227f7d3          	fcvt.d.l	fa5,a5
    80004516:	00d767b3          	or	a5,a4,a3
    8000451a:	0017d693          	srli	a3,a5,0x1
    8000451e:	00f6c733          	xor	a4,a3,a5
    80004522:	177a                	slli	a4,a4,0x3e
    80004524:	8f6d                	and	a4,a4,a1
    80004526:	aa1c                	fsd	fa5,16(a2)
    80004528:	d227f7d3          	fcvt.d.l	fa5,a5
    8000452c:	00d767b3          	or	a5,a4,a3
    80004530:	0017d693          	srli	a3,a5,0x1
    80004534:	00f6c733          	xor	a4,a3,a5
    80004538:	177a                	slli	a4,a4,0x3e
    8000453a:	8f6d                	and	a4,a4,a1
    8000453c:	ae1c                	fsd	fa5,24(a2)
    8000453e:	d227f7d3          	fcvt.d.l	fa5,a5
    80004542:	00d767b3          	or	a5,a4,a3
    80004546:	0017d693          	srli	a3,a5,0x1
    8000454a:	00f6c733          	xor	a4,a3,a5
    8000454e:	177a                	slli	a4,a4,0x3e
    80004550:	8f6d                	and	a4,a4,a1
    80004552:	b21c                	fsd	fa5,32(a2)
    80004554:	d227f7d3          	fcvt.d.l	fa5,a5
    80004558:	00d767b3          	or	a5,a4,a3
    8000455c:	0017d693          	srli	a3,a5,0x1
    80004560:	00f6c733          	xor	a4,a3,a5
    80004564:	b61c                	fsd	fa5,40(a2)
    80004566:	177a                	slli	a4,a4,0x3e
    80004568:	d227f7d3          	fcvt.d.l	fa5,a5
    8000456c:	8f6d                	and	a4,a4,a1
    8000456e:	00d767b3          	or	a5,a4,a3
    80004572:	ba1c                	fsd	fa5,48(a2)
    80004574:	d227f7d3          	fcvt.d.l	fa5,a5
    80004578:	00860713          	addi	a4,a2,8
    8000457c:	04060613          	addi	a2,a2,64
    80004580:	bb1c                	fsd	fa5,48(a4)
    80004582:	f4c514e3          	bne	a0,a2,800044ca <thread_entry+0x58>
    80004586:	0f870513          	addi	a0,a4,248
    8000458a:	f2a81ee3          	bne	a6,a0,800044c6 <thread_entry+0x54>
    8000458e:	6805                	lui	a6,0x1
    80004590:	38880813          	addi	a6,a6,904 # 1388 <buflen.1+0x1308>
    80004594:	4585                	li	a1,1
    80004596:	0c898513          	addi	a0,s3,200
    8000459a:	984e                	add	a6,a6,s3
    8000459c:	15fa                	slli	a1,a1,0x3e
    8000459e:	0017d693          	srli	a3,a5,0x1
    800045a2:	00f6c733          	xor	a4,a3,a5
    800045a6:	177a                	slli	a4,a4,0x3e
    800045a8:	8f6d                	and	a4,a4,a1
    800045aa:	00d767b3          	or	a5,a4,a3
    800045ae:	d227f7d3          	fcvt.d.l	fa5,a5
    800045b2:	f4050613          	addi	a2,a0,-192
    800045b6:	f2f53c27          	fsd	fa5,-200(a0)
    800045ba:	0017d693          	srli	a3,a5,0x1
    800045be:	00f6c733          	xor	a4,a3,a5
    800045c2:	177a                	slli	a4,a4,0x3e
    800045c4:	8f6d                	and	a4,a4,a1
    800045c6:	00d767b3          	or	a5,a4,a3
    800045ca:	0017d693          	srli	a3,a5,0x1
    800045ce:	00f6c733          	xor	a4,a3,a5
    800045d2:	177a                	slli	a4,a4,0x3e
    800045d4:	8f6d                	and	a4,a4,a1
    800045d6:	d227f7d3          	fcvt.d.l	fa5,a5
    800045da:	00d767b3          	or	a5,a4,a3
    800045de:	0017d693          	srli	a3,a5,0x1
    800045e2:	00f6c733          	xor	a4,a3,a5
    800045e6:	177a                	slli	a4,a4,0x3e
    800045e8:	8f6d                	and	a4,a4,a1
    800045ea:	a21c                	fsd	fa5,0(a2)
    800045ec:	d227f7d3          	fcvt.d.l	fa5,a5
    800045f0:	00d767b3          	or	a5,a4,a3
    800045f4:	0017d693          	srli	a3,a5,0x1
    800045f8:	00f6c733          	xor	a4,a3,a5
    800045fc:	177a                	slli	a4,a4,0x3e
    800045fe:	8f6d                	and	a4,a4,a1
    80004600:	a61c                	fsd	fa5,8(a2)
    80004602:	d227f7d3          	fcvt.d.l	fa5,a5
    80004606:	00d767b3          	or	a5,a4,a3
    8000460a:	0017d693          	srli	a3,a5,0x1
    8000460e:	00f6c733          	xor	a4,a3,a5
    80004612:	177a                	slli	a4,a4,0x3e
    80004614:	8f6d                	and	a4,a4,a1
    80004616:	aa1c                	fsd	fa5,16(a2)
    80004618:	d227f7d3          	fcvt.d.l	fa5,a5
    8000461c:	00d767b3          	or	a5,a4,a3
    80004620:	0017d693          	srli	a3,a5,0x1
    80004624:	00f6c733          	xor	a4,a3,a5
    80004628:	177a                	slli	a4,a4,0x3e
    8000462a:	8f6d                	and	a4,a4,a1
    8000462c:	ae1c                	fsd	fa5,24(a2)
    8000462e:	d227f7d3          	fcvt.d.l	fa5,a5
    80004632:	00d767b3          	or	a5,a4,a3
    80004636:	0017d693          	srli	a3,a5,0x1
    8000463a:	00f6c733          	xor	a4,a3,a5
    8000463e:	177a                	slli	a4,a4,0x3e
    80004640:	8f6d                	and	a4,a4,a1
    80004642:	b21c                	fsd	fa5,32(a2)
    80004644:	d227f7d3          	fcvt.d.l	fa5,a5
    80004648:	00d767b3          	or	a5,a4,a3
    8000464c:	0017d693          	srli	a3,a5,0x1
    80004650:	00f6c733          	xor	a4,a3,a5
    80004654:	b61c                	fsd	fa5,40(a2)
    80004656:	177a                	slli	a4,a4,0x3e
    80004658:	d227f7d3          	fcvt.d.l	fa5,a5
    8000465c:	8f6d                	and	a4,a4,a1
    8000465e:	00d767b3          	or	a5,a4,a3
    80004662:	ba1c                	fsd	fa5,48(a2)
    80004664:	d227f7d3          	fcvt.d.l	fa5,a5
    80004668:	00860713          	addi	a4,a2,8
    8000466c:	04060613          	addi	a2,a2,64
    80004670:	bb1c                	fsd	fa5,48(a4)
    80004672:	f4c514e3          	bne	a0,a2,800045ba <thread_entry+0x148>
    80004676:	10070513          	addi	a0,a4,256
    8000467a:	f2a812e3          	bne	a6,a0,8000459e <thread_entry+0x12c>
    8000467e:	6605                	lui	a2,0x1
    80004680:	2c060613          	addi	a2,a2,704 # 12c0 <buflen.1+0x1240>
    80004684:	4581                	li	a1,0
    80004686:	8526                	mv	a0,s1
    80004688:	71a000ef          	jal	ra,80004da2 <memset>
    8000468c:	4b21                	li	s6,8
    8000468e:	4d65                	li	s10,25
    80004690:	b0202bf3          	csrr	s7,minstret
    80004694:	b0002cf3          	csrr	s9,mcycle
    80004698:	4865                	li	a6,25
    8000469a:	e06a                	sd	s10,0(sp)
    8000469c:	88a6                	mv	a7,s1
    8000469e:	87ce                	mv	a5,s3
    800046a0:	4761                	li	a4,24
    800046a2:	86ca                	mv	a3,s2
    800046a4:	4661                	li	a2,24
    800046a6:	45e5                	li	a1,25
    800046a8:	4561                	li	a0,24
    800046aa:	f80ff0ef          	jal	ra,80003e2a <mm>
    800046ae:	b0202c73          	csrr	s8,minstret
    800046b2:	b00027f3          	csrr	a5,mcycle
    800046b6:	3b7d                	addiw	s6,s6,-1
    800046b8:	fc0b1ce3          	bnez	s6,80004690 <thread_entry+0x21e>
    800046bc:	41978cb3          	sub	s9,a5,s9
    800046c0:	0ff0000f          	fence
    800046c4:	47e1                	li	a5,24
    800046c6:	48e1                	li	a7,24
    800046c8:	4865                	li	a6,25
    800046ca:	4719                	li	a4,6
    800046cc:	4695                	li	a3,5
    800046ce:	4611                	li	a2,4
    800046d0:	85d2                	mv	a1,s4
    800046d2:	00001517          	auipc	a0,0x1
    800046d6:	8ce50513          	addi	a0,a0,-1842 # 80004fa0 <main+0x2e>
    800046da:	5a6000ef          	jal	ra,80004c80 <printf>
    800046de:	417c063b          	subw	a2,s8,s7
    800046e2:	85d2                	mv	a1,s4
    800046e4:	00001517          	auipc	a0,0x1
    800046e8:	8ec50513          	addi	a0,a0,-1812 # 80004fd0 <main+0x5e>
    800046ec:	594000ef          	jal	ra,80004c80 <printf>
    800046f0:	000c861b          	sext.w	a2,s9
    800046f4:	85d2                	mv	a1,s4
    800046f6:	00001517          	auipc	a0,0x1
    800046fa:	8f250513          	addi	a0,a0,-1806 # 80004fe8 <main+0x76>
    800046fe:	582000ef          	jal	ra,80004c80 <printf>
    80004702:	661d                	lui	a2,0x7
    80004704:	08060613          	addi	a2,a2,128 # 7080 <buflen.1+0x7000>
    80004708:	85d2                	mv	a1,s4
    8000470a:	00001517          	auipc	a0,0x1
    8000470e:	8ee50513          	addi	a0,a0,-1810 # 80004ff8 <main+0x86>
    80004712:	56e000ef          	jal	ra,80004c80 <printf>
    80004716:	01b77637          	lui	a2,0x1b77
    8000471a:	40060613          	addi	a2,a2,1024 # 1b77400 <buflen.1+0x1b77380>
    8000471e:	03965633          	divu	a2,a2,s9
    80004722:	85d2                	mv	a1,s4
    80004724:	00001517          	auipc	a0,0x1
    80004728:	8e450513          	addi	a0,a0,-1820 # 80005008 <main+0x96>
    8000472c:	554000ef          	jal	ra,80004c80 <printf>
    80004730:	6f05                	lui	t5,0x1
    80004732:	7e7d                	lui	t3,0xfffff
    80004734:	4601                	li	a2,0
    80004736:	00001797          	auipc	a5,0x1
    8000473a:	85a7b507          	fld	fa0,-1958(a5) # 80004f90 <main+0x1e>
    8000473e:	00001797          	auipc	a5,0x1
    80004742:	85a7b587          	fld	fa1,-1958(a5) # 80004f98 <main+0x26>
    80004746:	2c0f0f13          	addi	t5,t5,704 # 12c0 <buflen.1+0x1240>
    8000474a:	d40e0e13          	addi	t3,t3,-704 # ffffffffffffed40 <__global_pointer$+0xffffffff7fff95b0>
    8000474e:	4ee5                	li	t4,25
    80004750:	4fe1                	li	t6,24
    80004752:	00161313          	slli	t1,a2,0x1
    80004756:	9332                	add	t1,t1,a2
    80004758:	031a                	slli	t1,t1,0x6
    8000475a:	01e98833          	add	a6,s3,t5
    8000475e:	934a                	add	t1,t1,s2
    80004760:	88a6                	mv	a7,s1
    80004762:	4681                	li	a3,0
    80004764:	f20007d3          	fmv.d.x	fa5,zero
    80004768:	01c805b3          	add	a1,a6,t3
    8000476c:	851a                	mv	a0,t1
    8000476e:	2114                	fld	fa3,0(a0)
    80004770:	2198                	fld	fa4,0(a1)
    80004772:	00850713          	addi	a4,a0,8
    80004776:	0c858793          	addi	a5,a1,200
    8000477a:	7ae6f7c3          	fmadd.d	fa5,fa3,fa4,fa5
    8000477e:	2514                	fld	fa3,8(a0)
    80004780:	25f8                	fld	fa4,200(a1)
    80004782:	04050513          	addi	a0,a0,64
    80004786:	7ae6f7c3          	fmadd.d	fa5,fa3,fa4,fa5
    8000478a:	1905b707          	fld	fa4,400(a1)
    8000478e:	fd053687          	fld	fa3,-48(a0)
    80004792:	57878593          	addi	a1,a5,1400
    80004796:	7ae6f7c3          	fmadd.d	fa5,fa3,fa4,fa5
    8000479a:	2b14                	fld	fa3,16(a4)
    8000479c:	1907b707          	fld	fa4,400(a5)
    800047a0:	7ae6f7c3          	fmadd.d	fa5,fa3,fa4,fa5
    800047a4:	2f14                	fld	fa3,24(a4)
    800047a6:	2587b707          	fld	fa4,600(a5)
    800047aa:	7ae6f7c3          	fmadd.d	fa5,fa3,fa4,fa5
    800047ae:	3314                	fld	fa3,32(a4)
    800047b0:	3207b707          	fld	fa4,800(a5)
    800047b4:	7ae6f7c3          	fmadd.d	fa5,fa3,fa4,fa5
    800047b8:	3714                	fld	fa3,40(a4)
    800047ba:	3e87b707          	fld	fa4,1000(a5)
    800047be:	7ae6f7c3          	fmadd.d	fa5,fa3,fa4,fa5
    800047c2:	3b14                	fld	fa3,48(a4)
    800047c4:	4b07b707          	fld	fa4,1200(a5)
    800047c8:	7ae6f7c3          	fmadd.d	fa5,fa3,fa4,fa5
    800047cc:	fab811e3          	bne	a6,a1,8000476e <thread_entry+0x2fc>
    800047d0:	12a7f7d3          	fmul.d	fa5,fa5,fa0
    800047d4:	0008b607          	fld	fa2,0(a7)
    800047d8:	12b7f753          	fmul.d	fa4,fa5,fa1
    800047dc:	0af676d3          	fsub.d	fa3,fa2,fa5
    800047e0:	22e72753          	fabs.d	fa4,fa4
    800047e4:	22d6a6d3          	fabs.d	fa3,fa3
    800047e8:	a2d71753          	flt.d	a4,fa4,fa3
    800047ec:	e315                	bnez	a4,80004810 <thread_entry+0x39e>
    800047ee:	0685                	addi	a3,a3,1
    800047f0:	08a1                	addi	a7,a7,8
    800047f2:	58078813          	addi	a6,a5,1408
    800047f6:	f7d697e3          	bne	a3,t4,80004764 <thread_entry+0x2f2>
    800047fa:	0605                	addi	a2,a2,1
    800047fc:	0c848493          	addi	s1,s1,200
    80004800:	f5f619e3          	bne	a2,t6,80004752 <thread_entry+0x2e0>
    80004804:	8556                	mv	a0,s5
    80004806:	c23ff0ef          	jal	ra,80004428 <barrier>
    8000480a:	4501                	li	a0,0
    8000480c:	3c0000ef          	jal	ra,80004bcc <exit>
    80004810:	e20787d3          	fmv.x.d	a5,fa5
    80004814:	e2060753          	fmv.x.d	a4,fa2
    80004818:	85d2                	mv	a1,s4
    8000481a:	00001517          	auipc	a0,0x1
    8000481e:	80650513          	addi	a0,a0,-2042 # 80005020 <main+0xae>
    80004822:	45e000ef          	jal	ra,80004c80 <printf>
    80004826:	4505                	li	a0,1
    80004828:	3a4000ef          	jal	ra,80004bcc <exit>

000000008000482c <vprintfmt>:
    8000482c:	710d                	addi	sp,sp,-352
    8000482e:	eaa2                	sd	s0,336(sp)
    80004830:	e6a6                	sd	s1,328(sp)
    80004832:	e2ca                	sd	s2,320(sp)
    80004834:	f656                	sd	s5,296(sp)
    80004836:	f25a                	sd	s6,288(sp)
    80004838:	ee5e                	sd	s7,280(sp)
    8000483a:	ee86                	sd	ra,344(sp)
    8000483c:	fe4e                	sd	s3,312(sp)
    8000483e:	fa52                	sd	s4,304(sp)
    80004840:	ea62                	sd	s8,272(sp)
    80004842:	e666                	sd	s9,264(sp)
    80004844:	e26a                	sd	s10,256(sp)
    80004846:	892a                	mv	s2,a0
    80004848:	84ae                	mv	s1,a1
    8000484a:	8432                	mv	s0,a2
    8000484c:	8b36                	mv	s6,a3
    8000484e:	02500a93          	li	s5,37
    80004852:	8f418b93          	addi	s7,gp,-1804 # 80005084 <main+0x112>
    80004856:	a029                	j	80004860 <vprintfmt+0x34>
    80004858:	c131                	beqz	a0,8000489c <vprintfmt+0x70>
    8000485a:	85a6                	mv	a1,s1
    8000485c:	0405                	addi	s0,s0,1
    8000485e:	9902                	jalr	s2
    80004860:	00044503          	lbu	a0,0(s0)
    80004864:	ff551ae3          	bne	a0,s5,80004858 <vprintfmt+0x2c>
    80004868:	00144683          	lbu	a3,1(s0)
    8000486c:	00140a13          	addi	s4,s0,1
    80004870:	8752                	mv	a4,s4
    80004872:	02000c93          	li	s9,32
    80004876:	59fd                	li	s3,-1
    80004878:	5d7d                	li	s10,-1
    8000487a:	4501                	li	a0,0
    8000487c:	05500613          	li	a2,85
    80004880:	45a5                	li	a1,9
    80004882:	fdd6879b          	addiw	a5,a3,-35
    80004886:	0ff7f793          	zext.b	a5,a5
    8000488a:	00170413          	addi	s0,a4,1
    8000488e:	04f66163          	bltu	a2,a5,800048d0 <vprintfmt+0xa4>
    80004892:	078a                	slli	a5,a5,0x2
    80004894:	97de                	add	a5,a5,s7
    80004896:	439c                	lw	a5,0(a5)
    80004898:	97de                	add	a5,a5,s7
    8000489a:	8782                	jr	a5
    8000489c:	60f6                	ld	ra,344(sp)
    8000489e:	6456                	ld	s0,336(sp)
    800048a0:	64b6                	ld	s1,328(sp)
    800048a2:	6916                	ld	s2,320(sp)
    800048a4:	79f2                	ld	s3,312(sp)
    800048a6:	7a52                	ld	s4,304(sp)
    800048a8:	7ab2                	ld	s5,296(sp)
    800048aa:	7b12                	ld	s6,288(sp)
    800048ac:	6bf2                	ld	s7,280(sp)
    800048ae:	6c52                	ld	s8,272(sp)
    800048b0:	6cb2                	ld	s9,264(sp)
    800048b2:	6d12                	ld	s10,256(sp)
    800048b4:	6135                	addi	sp,sp,352
    800048b6:	8082                	ret
    800048b8:	8cb6                	mv	s9,a3
    800048ba:	00174683          	lbu	a3,1(a4)
    800048be:	8722                	mv	a4,s0
    800048c0:	00170413          	addi	s0,a4,1
    800048c4:	fdd6879b          	addiw	a5,a3,-35
    800048c8:	0ff7f793          	zext.b	a5,a5
    800048cc:	fcf673e3          	bgeu	a2,a5,80004892 <vprintfmt+0x66>
    800048d0:	85a6                	mv	a1,s1
    800048d2:	02500513          	li	a0,37
    800048d6:	9902                	jalr	s2
    800048d8:	8452                	mv	s0,s4
    800048da:	b759                	j	80004860 <vprintfmt+0x34>
    800048dc:	fd06899b          	addiw	s3,a3,-48
    800048e0:	00174683          	lbu	a3,1(a4)
    800048e4:	8722                	mv	a4,s0
    800048e6:	fd06879b          	addiw	a5,a3,-48
    800048ea:	0006881b          	sext.w	a6,a3
    800048ee:	02f5e563          	bltu	a1,a5,80004918 <vprintfmt+0xec>
    800048f2:	00174683          	lbu	a3,1(a4)
    800048f6:	0029979b          	slliw	a5,s3,0x2
    800048fa:	013789bb          	addw	s3,a5,s3
    800048fe:	0019999b          	slliw	s3,s3,0x1
    80004902:	010989bb          	addw	s3,s3,a6
    80004906:	fd06879b          	addiw	a5,a3,-48
    8000490a:	0705                	addi	a4,a4,1
    8000490c:	fd09899b          	addiw	s3,s3,-48
    80004910:	0006881b          	sext.w	a6,a3
    80004914:	fcf5ffe3          	bgeu	a1,a5,800048f2 <vprintfmt+0xc6>
    80004918:	f60d55e3          	bgez	s10,80004882 <vprintfmt+0x56>
    8000491c:	8d4e                	mv	s10,s3
    8000491e:	59fd                	li	s3,-1
    80004920:	b78d                	j	80004882 <vprintfmt+0x56>
    80004922:	00174683          	lbu	a3,1(a4)
    80004926:	8722                	mv	a4,s0
    80004928:	bfa9                	j	80004882 <vprintfmt+0x56>
    8000492a:	85a6                	mv	a1,s1
    8000492c:	02500513          	li	a0,37
    80004930:	9902                	jalr	s2
    80004932:	b73d                	j	80004860 <vprintfmt+0x34>
    80004934:	000b2983          	lw	s3,0(s6)
    80004938:	00174683          	lbu	a3,1(a4)
    8000493c:	0b21                	addi	s6,s6,8
    8000493e:	8722                	mv	a4,s0
    80004940:	bfe1                	j	80004918 <vprintfmt+0xec>
    80004942:	03000513          	li	a0,48
    80004946:	85a6                	mv	a1,s1
    80004948:	9902                	jalr	s2
    8000494a:	85a6                	mv	a1,s1
    8000494c:	07800513          	li	a0,120
    80004950:	9902                	jalr	s2
    80004952:	008b0693          	addi	a3,s6,8
    80004956:	4741                	li	a4,16
    80004958:	000b3783          	ld	a5,0(s6)
    8000495c:	8b36                	mv	s6,a3
    8000495e:	02e7f9b3          	remu	s3,a5,a4
    80004962:	2c81                	sext.w	s9,s9
    80004964:	0054                	addi	a3,sp,4
    80004966:	4c05                	li	s8,1
    80004968:	c04e                	sw	s3,0(sp)
    8000496a:	14e7e363          	bltu	a5,a4,80004ab0 <vprintfmt+0x284>
    8000496e:	02e7d7b3          	divu	a5,a5,a4
    80004972:	0691                	addi	a3,a3,4
    80004974:	8a62                	mv	s4,s8
    80004976:	2c05                	addiw	s8,s8,1
    80004978:	02e7f9b3          	remu	s3,a5,a4
    8000497c:	ff36ae23          	sw	s3,-4(a3)
    80004980:	fee7f7e3          	bgeu	a5,a4,8000496e <vprintfmt+0x142>
    80004984:	01ac5963          	bge	s8,s10,80004996 <vprintfmt+0x16a>
    80004988:	2d01                	sext.w	s10,s10
    8000498a:	3d7d                	addiw	s10,s10,-1
    8000498c:	85a6                	mv	a1,s1
    8000498e:	8566                	mv	a0,s9
    80004990:	9902                	jalr	s2
    80004992:	ffac4ce3          	blt	s8,s10,8000498a <vprintfmt+0x15e>
    80004996:	0a0a                	slli	s4,s4,0x2
    80004998:	9a0a                	add	s4,s4,sp
    8000499a:	8c8a                	mv	s9,sp
    8000499c:	4c25                	li	s8,9
    8000499e:	a021                	j	800049a6 <vprintfmt+0x17a>
    800049a0:	ffca2983          	lw	s3,-4(s4)
    800049a4:	1a71                	addi	s4,s4,-4
    800049a6:	05700513          	li	a0,87
    800049aa:	013c6463          	bltu	s8,s3,800049b2 <vprintfmt+0x186>
    800049ae:	03000513          	li	a0,48
    800049b2:	85a6                	mv	a1,s1
    800049b4:	0135053b          	addw	a0,a0,s3
    800049b8:	9902                	jalr	s2
    800049ba:	ff9a13e3          	bne	s4,s9,800049a0 <vprintfmt+0x174>
    800049be:	b54d                	j	80004860 <vprintfmt+0x34>
    800049c0:	4785                	li	a5,1
    800049c2:	008b0a13          	addi	s4,s6,8
    800049c6:	00a7c363          	blt	a5,a0,800049cc <vprintfmt+0x1a0>
    800049ca:	c57d                	beqz	a0,80004ab8 <vprintfmt+0x28c>
    800049cc:	000b3983          	ld	s3,0(s6)
    800049d0:	0e09cb63          	bltz	s3,80004ac6 <vprintfmt+0x29a>
    800049d4:	87ce                	mv	a5,s3
    800049d6:	8b52                	mv	s6,s4
    800049d8:	4729                	li	a4,10
    800049da:	b751                	j	8000495e <vprintfmt+0x132>
    800049dc:	00174683          	lbu	a3,1(a4)
    800049e0:	2505                	addiw	a0,a0,1
    800049e2:	8722                	mv	a4,s0
    800049e4:	bd79                	j	80004882 <vprintfmt+0x56>
    800049e6:	4741                	li	a4,16
    800049e8:	4785                	li	a5,1
    800049ea:	008b0693          	addi	a3,s6,8
    800049ee:	f6a7c5e3          	blt	a5,a0,80004958 <vprintfmt+0x12c>
    800049f2:	f13d                	bnez	a0,80004958 <vprintfmt+0x12c>
    800049f4:	000b6783          	lwu	a5,0(s6)
    800049f8:	8b36                	mv	s6,a3
    800049fa:	b795                	j	8000495e <vprintfmt+0x132>
    800049fc:	000b3a03          	ld	s4,0(s6)
    80004a00:	0b21                	addi	s6,s6,8
    80004a02:	0c0a0b63          	beqz	s4,80004ad8 <vprintfmt+0x2ac>
    80004a06:	07a05f63          	blez	s10,80004a84 <vprintfmt+0x258>
    80004a0a:	02d00793          	li	a5,45
    80004a0e:	04fc9063          	bne	s9,a5,80004a4e <vprintfmt+0x222>
    80004a12:	000a4503          	lbu	a0,0(s4)
    80004a16:	c105                	beqz	a0,80004a36 <vprintfmt+0x20a>
    80004a18:	5c7d                	li	s8,-1
    80004a1a:	0009c563          	bltz	s3,80004a24 <vprintfmt+0x1f8>
    80004a1e:	39fd                	addiw	s3,s3,-1
    80004a20:	01898963          	beq	s3,s8,80004a32 <vprintfmt+0x206>
    80004a24:	85a6                	mv	a1,s1
    80004a26:	0a05                	addi	s4,s4,1
    80004a28:	9902                	jalr	s2
    80004a2a:	000a4503          	lbu	a0,0(s4)
    80004a2e:	3d7d                	addiw	s10,s10,-1
    80004a30:	f56d                	bnez	a0,80004a1a <vprintfmt+0x1ee>
    80004a32:	e3a057e3          	blez	s10,80004860 <vprintfmt+0x34>
    80004a36:	3d7d                	addiw	s10,s10,-1
    80004a38:	85a6                	mv	a1,s1
    80004a3a:	02000513          	li	a0,32
    80004a3e:	9902                	jalr	s2
    80004a40:	fe0d1be3          	bnez	s10,80004a36 <vprintfmt+0x20a>
    80004a44:	bd31                	j	80004860 <vprintfmt+0x34>
    80004a46:	00000a17          	auipc	s4,0x0
    80004a4a:	5faa0a13          	addi	s4,s4,1530 # 80005040 <main+0xce>
    80004a4e:	000d061b          	sext.w	a2,s10
    80004a52:	87d2                	mv	a5,s4
    80004a54:	013a06b3          	add	a3,s4,s3
    80004a58:	00099663          	bnez	s3,80004a64 <vprintfmt+0x238>
    80004a5c:	a829                	j	80004a76 <vprintfmt+0x24a>
    80004a5e:	0785                	addi	a5,a5,1
    80004a60:	00d78563          	beq	a5,a3,80004a6a <vprintfmt+0x23e>
    80004a64:	0007c703          	lbu	a4,0(a5)
    80004a68:	fb7d                	bnez	a4,80004a5e <vprintfmt+0x232>
    80004a6a:	41478d33          	sub	s10,a5,s4
    80004a6e:	41a60d3b          	subw	s10,a2,s10
    80004a72:	01a05963          	blez	s10,80004a84 <vprintfmt+0x258>
    80004a76:	2c81                	sext.w	s9,s9
    80004a78:	3d7d                	addiw	s10,s10,-1
    80004a7a:	85a6                	mv	a1,s1
    80004a7c:	8566                	mv	a0,s9
    80004a7e:	9902                	jalr	s2
    80004a80:	fe0d1ce3          	bnez	s10,80004a78 <vprintfmt+0x24c>
    80004a84:	000a4503          	lbu	a0,0(s4)
    80004a88:	dc050ce3          	beqz	a0,80004860 <vprintfmt+0x34>
    80004a8c:	5c7d                	li	s8,-1
    80004a8e:	b771                	j	80004a1a <vprintfmt+0x1ee>
    80004a90:	fffd4793          	not	a5,s10
    80004a94:	97fd                	srai	a5,a5,0x3f
    80004a96:	00fd7d33          	and	s10,s10,a5
    80004a9a:	00174683          	lbu	a3,1(a4)
    80004a9e:	2d01                	sext.w	s10,s10
    80004aa0:	8722                	mv	a4,s0
    80004aa2:	b3c5                	j	80004882 <vprintfmt+0x56>
    80004aa4:	000b2503          	lw	a0,0(s6)
    80004aa8:	85a6                	mv	a1,s1
    80004aaa:	0b21                	addi	s6,s6,8
    80004aac:	9902                	jalr	s2
    80004aae:	bb4d                	j	80004860 <vprintfmt+0x34>
    80004ab0:	4a01                	li	s4,0
    80004ab2:	edac4be3          	blt	s8,s10,80004988 <vprintfmt+0x15c>
    80004ab6:	b5c5                	j	80004996 <vprintfmt+0x16a>
    80004ab8:	000b2983          	lw	s3,0(s6)
    80004abc:	bf11                	j	800049d0 <vprintfmt+0x1a4>
    80004abe:	4721                	li	a4,8
    80004ac0:	b725                	j	800049e8 <vprintfmt+0x1bc>
    80004ac2:	4729                	li	a4,10
    80004ac4:	b715                	j	800049e8 <vprintfmt+0x1bc>
    80004ac6:	85a6                	mv	a1,s1
    80004ac8:	02d00513          	li	a0,45
    80004acc:	9902                	jalr	s2
    80004ace:	8b52                	mv	s6,s4
    80004ad0:	413007b3          	neg	a5,s3
    80004ad4:	4729                	li	a4,10
    80004ad6:	b561                	j	8000495e <vprintfmt+0x132>
    80004ad8:	01a05663          	blez	s10,80004ae4 <vprintfmt+0x2b8>
    80004adc:	02d00793          	li	a5,45
    80004ae0:	f6fc93e3          	bne	s9,a5,80004a46 <vprintfmt+0x21a>
    80004ae4:	00000a17          	auipc	s4,0x0
    80004ae8:	55ca0a13          	addi	s4,s4,1372 # 80005040 <main+0xce>
    80004aec:	02800513          	li	a0,40
    80004af0:	5c7d                	li	s8,-1
    80004af2:	b725                	j	80004a1a <vprintfmt+0x1ee>

0000000080004af4 <sprintf_putch.0>:
    80004af4:	619c                	ld	a5,0(a1)
    80004af6:	00a78023          	sb	a0,0(a5)
    80004afa:	619c                	ld	a5,0(a1)
    80004afc:	0785                	addi	a5,a5,1
    80004afe:	e19c                	sd	a5,0(a1)
    80004b00:	8082                	ret

0000000080004b02 <putchar>:
    80004b02:	08022803          	lw	a6,128(tp) # 80 <buflen.1>
    80004b06:	04020793          	addi	a5,tp,64 # 40 <buf.2>
    80004b0a:	97c2                	add	a5,a5,a6
    80004b0c:	7159                	addi	sp,sp,-112
    80004b0e:	0018069b          	addiw	a3,a6,1
    80004b12:	08d22023          	sw	a3,128(tp) # 80 <buflen.1>
    80004b16:	00a78023          	sb	a0,0(a5)
    80004b1a:	03f10713          	addi	a4,sp,63
    80004b1e:	47a9                	li	a5,10
    80004b20:	fc077713          	andi	a4,a4,-64
    80004b24:	00f50963          	beq	a0,a5,80004b36 <putchar+0x34>
    80004b28:	04000793          	li	a5,64
    80004b2c:	00f68563          	beq	a3,a5,80004b36 <putchar+0x34>
    80004b30:	4501                	li	a0,0
    80004b32:	6165                	addi	sp,sp,112
    80004b34:	8082                	ret
    80004b36:	04000793          	li	a5,64
    80004b3a:	e31c                	sd	a5,0(a4)
    80004b3c:	4785                	li	a5,1
    80004b3e:	e71c                	sd	a5,8(a4)
    80004b40:	04020613          	addi	a2,tp,64 # 40 <buf.2>
    80004b44:	eb10                	sd	a2,16(a4)
    80004b46:	ef14                	sd	a3,24(a4)
    80004b48:	0ff0000f          	fence
    80004b4c:	ffffc697          	auipc	a3,0xffffc
    80004b50:	4f468693          	addi	a3,a3,1268 # 80001040 <fromhost>
    80004b54:	ffffc797          	auipc	a5,0xffffc
    80004b58:	4ae7b623          	sd	a4,1196(a5) # 80001000 <tohost>
    80004b5c:	629c                	ld	a5,0(a3)
    80004b5e:	dffd                	beqz	a5,80004b5c <putchar+0x5a>
    80004b60:	ffffc797          	auipc	a5,0xffffc
    80004b64:	4e07b023          	sd	zero,1248(a5) # 80001040 <fromhost>
    80004b68:	0ff0000f          	fence
    80004b6c:	08022023          	sw	zero,128(tp) # 80 <buflen.1>
    80004b70:	631c                	ld	a5,0(a4)
    80004b72:	4501                	li	a0,0
    80004b74:	6165                	addi	sp,sp,112
    80004b76:	8082                	ret

0000000080004b78 <setStats>:
    80004b78:	b0002773          	csrr	a4,mcycle
    80004b7c:	a5818793          	addi	a5,gp,-1448 # 800051e8 <counters>
    80004b80:	e901                	bnez	a0,80004b90 <setStats+0x18>
    80004b82:	6394                	ld	a3,0(a5)
    80004b84:	00000617          	auipc	a2,0x0
    80004b88:	4c460613          	addi	a2,a2,1220 # 80005048 <main+0xd6>
    80004b8c:	eb90                	sd	a2,16(a5)
    80004b8e:	8f15                	sub	a4,a4,a3
    80004b90:	e398                	sd	a4,0(a5)
    80004b92:	b0202773          	csrr	a4,minstret
    80004b96:	e901                	bnez	a0,80004ba6 <setStats+0x2e>
    80004b98:	6794                	ld	a3,8(a5)
    80004b9a:	00000617          	auipc	a2,0x0
    80004b9e:	4b660613          	addi	a2,a2,1206 # 80005050 <main+0xde>
    80004ba2:	ef90                	sd	a2,24(a5)
    80004ba4:	8f15                	sub	a4,a4,a3
    80004ba6:	e798                	sd	a4,8(a5)
    80004ba8:	8082                	ret

0000000080004baa <tohost_exit>:
    80004baa:	00151793          	slli	a5,a0,0x1
    80004bae:	0017e793          	ori	a5,a5,1
    80004bb2:	ffffc717          	auipc	a4,0xffffc
    80004bb6:	44f73723          	sd	a5,1102(a4) # 80001000 <tohost>
    80004bba:	a001                	j	80004bba <tohost_exit+0x10>

0000000080004bbc <handle_trap>:
    80004bbc:	6785                	lui	a5,0x1
    80004bbe:	a7378793          	addi	a5,a5,-1421 # a73 <buflen.1+0x9f3>
    80004bc2:	ffffc717          	auipc	a4,0xffffc
    80004bc6:	42f73f23          	sd	a5,1086(a4) # 80001000 <tohost>
    80004bca:	a001                	j	80004bca <handle_trap+0xe>

0000000080004bcc <exit>:
    80004bcc:	1141                	addi	sp,sp,-16
    80004bce:	e406                	sd	ra,8(sp)
    80004bd0:	fdbff0ef          	jal	ra,80004baa <tohost_exit>

0000000080004bd4 <abort>:
    80004bd4:	10d00793          	li	a5,269
    80004bd8:	ffffc717          	auipc	a4,0xffffc
    80004bdc:	42f73423          	sd	a5,1064(a4) # 80001000 <tohost>
    80004be0:	a001                	j	80004be0 <abort+0xc>

0000000080004be2 <printstr>:
    80004be2:	00054783          	lbu	a5,0(a0)
    80004be6:	7159                	addi	sp,sp,-112
    80004be8:	03f10693          	addi	a3,sp,63
    80004bec:	fc06f693          	andi	a3,a3,-64
    80004bf0:	c3b9                	beqz	a5,80004c36 <printstr+0x54>
    80004bf2:	87aa                	mv	a5,a0
    80004bf4:	0017c703          	lbu	a4,1(a5)
    80004bf8:	0785                	addi	a5,a5,1
    80004bfa:	ff6d                	bnez	a4,80004bf4 <printstr+0x12>
    80004bfc:	8f89                	sub	a5,a5,a0
    80004bfe:	04000713          	li	a4,64
    80004c02:	e298                	sd	a4,0(a3)
    80004c04:	4705                	li	a4,1
    80004c06:	e698                	sd	a4,8(a3)
    80004c08:	ea88                	sd	a0,16(a3)
    80004c0a:	ee9c                	sd	a5,24(a3)
    80004c0c:	0ff0000f          	fence
    80004c10:	ffffc717          	auipc	a4,0xffffc
    80004c14:	43070713          	addi	a4,a4,1072 # 80001040 <fromhost>
    80004c18:	ffffc797          	auipc	a5,0xffffc
    80004c1c:	3ed7b423          	sd	a3,1000(a5) # 80001000 <tohost>
    80004c20:	631c                	ld	a5,0(a4)
    80004c22:	dffd                	beqz	a5,80004c20 <printstr+0x3e>
    80004c24:	ffffc797          	auipc	a5,0xffffc
    80004c28:	4007be23          	sd	zero,1052(a5) # 80001040 <fromhost>
    80004c2c:	0ff0000f          	fence
    80004c30:	629c                	ld	a5,0(a3)
    80004c32:	6165                	addi	sp,sp,112
    80004c34:	8082                	ret
    80004c36:	4781                	li	a5,0
    80004c38:	b7d9                	j	80004bfe <printstr+0x1c>
    80004c3a:	e101                	bnez	a0,80004c3a <printstr+0x58>
    80004c3c:	8082                	ret

0000000080004c3e <printhex>:
    80004c3e:	7179                	addi	sp,sp,-48
    80004c40:	87aa                	mv	a5,a0
    80004c42:	f406                	sd	ra,40(sp)
    80004c44:	0028                	addi	a0,sp,8
    80004c46:	01710613          	addi	a2,sp,23
    80004c4a:	4825                	li	a6,9
    80004c4c:	a011                	j	80004c50 <printhex+0x12>
    80004c4e:	863a                	mv	a2,a4
    80004c50:	00f7f693          	andi	a3,a5,15
    80004c54:	8736                	mv	a4,a3
    80004c56:	03000593          	li	a1,48
    80004c5a:	00d87463          	bgeu	a6,a3,80004c62 <printhex+0x24>
    80004c5e:	05700593          	li	a1,87
    80004c62:	9f2d                	addw	a4,a4,a1
    80004c64:	00e60023          	sb	a4,0(a2)
    80004c68:	8391                	srli	a5,a5,0x4
    80004c6a:	fff60713          	addi	a4,a2,-1
    80004c6e:	fec510e3          	bne	a0,a2,80004c4e <printhex+0x10>
    80004c72:	00010c23          	sb	zero,24(sp)
    80004c76:	f6dff0ef          	jal	ra,80004be2 <printstr>
    80004c7a:	70a2                	ld	ra,40(sp)
    80004c7c:	6145                	addi	sp,sp,48
    80004c7e:	8082                	ret

0000000080004c80 <printf>:
    80004c80:	711d                	addi	sp,sp,-96
    80004c82:	02810313          	addi	t1,sp,40
    80004c86:	8e2a                	mv	t3,a0
    80004c88:	f42e                	sd	a1,40(sp)
    80004c8a:	f832                	sd	a2,48(sp)
    80004c8c:	fc36                	sd	a3,56(sp)
    80004c8e:	00000517          	auipc	a0,0x0
    80004c92:	e7450513          	addi	a0,a0,-396 # 80004b02 <putchar>
    80004c96:	869a                	mv	a3,t1
    80004c98:	8672                	mv	a2,t3
    80004c9a:	4581                	li	a1,0
    80004c9c:	ec06                	sd	ra,24(sp)
    80004c9e:	e0ba                	sd	a4,64(sp)
    80004ca0:	e4be                	sd	a5,72(sp)
    80004ca2:	e8c2                	sd	a6,80(sp)
    80004ca4:	ecc6                	sd	a7,88(sp)
    80004ca6:	e41a                	sd	t1,8(sp)
    80004ca8:	b85ff0ef          	jal	ra,8000482c <vprintfmt>
    80004cac:	60e2                	ld	ra,24(sp)
    80004cae:	4501                	li	a0,0
    80004cb0:	6125                	addi	sp,sp,96
    80004cb2:	8082                	ret

0000000080004cb4 <sprintf>:
    80004cb4:	711d                	addi	sp,sp,-96
    80004cb6:	03010313          	addi	t1,sp,48
    80004cba:	f022                	sd	s0,32(sp)
    80004cbc:	e42a                	sd	a0,8(sp)
    80004cbe:	f832                	sd	a2,48(sp)
    80004cc0:	fc36                	sd	a3,56(sp)
    80004cc2:	842a                	mv	s0,a0
    80004cc4:	862e                	mv	a2,a1
    80004cc6:	00000517          	auipc	a0,0x0
    80004cca:	e2e50513          	addi	a0,a0,-466 # 80004af4 <sprintf_putch.0>
    80004cce:	002c                	addi	a1,sp,8
    80004cd0:	869a                	mv	a3,t1
    80004cd2:	f406                	sd	ra,40(sp)
    80004cd4:	e4be                	sd	a5,72(sp)
    80004cd6:	e0ba                	sd	a4,64(sp)
    80004cd8:	e8c2                	sd	a6,80(sp)
    80004cda:	ecc6                	sd	a7,88(sp)
    80004cdc:	ec1a                	sd	t1,24(sp)
    80004cde:	b4fff0ef          	jal	ra,8000482c <vprintfmt>
    80004ce2:	67a2                	ld	a5,8(sp)
    80004ce4:	00078023          	sb	zero,0(a5)
    80004ce8:	6522                	ld	a0,8(sp)
    80004cea:	70a2                	ld	ra,40(sp)
    80004cec:	9d01                	subw	a0,a0,s0
    80004cee:	7402                	ld	s0,32(sp)
    80004cf0:	6125                	addi	sp,sp,96
    80004cf2:	8082                	ret

0000000080004cf4 <memcpy>:
    80004cf4:	00c5e7b3          	or	a5,a1,a2
    80004cf8:	8fc9                	or	a5,a5,a0
    80004cfa:	8b9d                	andi	a5,a5,7
    80004cfc:	00c50833          	add	a6,a0,a2
    80004d00:	cf91                	beqz	a5,80004d1c <memcpy+0x28>
    80004d02:	962e                	add	a2,a2,a1
    80004d04:	87aa                	mv	a5,a0
    80004d06:	09057b63          	bgeu	a0,a6,80004d9c <memcpy+0xa8>
    80004d0a:	0005c703          	lbu	a4,0(a1)
    80004d0e:	0585                	addi	a1,a1,1
    80004d10:	0785                	addi	a5,a5,1
    80004d12:	fee78fa3          	sb	a4,-1(a5)
    80004d16:	fec59ae3          	bne	a1,a2,80004d0a <memcpy+0x16>
    80004d1a:	8082                	ret
    80004d1c:	04050693          	addi	a3,a0,64
    80004d20:	0706ff63          	bgeu	a3,a6,80004d9e <memcpy+0xaa>
    80004d24:	87b6                	mv	a5,a3
    80004d26:	872e                	mv	a4,a1
    80004d28:	00073383          	ld	t2,0(a4)
    80004d2c:	00873283          	ld	t0,8(a4)
    80004d30:	01073f83          	ld	t6,16(a4)
    80004d34:	01873f03          	ld	t5,24(a4)
    80004d38:	02073e83          	ld	t4,32(a4)
    80004d3c:	02873e03          	ld	t3,40(a4)
    80004d40:	03073303          	ld	t1,48(a4)
    80004d44:	03873883          	ld	a7,56(a4)
    80004d48:	04078793          	addi	a5,a5,64
    80004d4c:	f877b023          	sd	t2,-128(a5)
    80004d50:	f857b423          	sd	t0,-120(a5)
    80004d54:	f9f7b823          	sd	t6,-112(a5)
    80004d58:	f9e7bc23          	sd	t5,-104(a5)
    80004d5c:	fbd7b023          	sd	t4,-96(a5)
    80004d60:	fbc7b423          	sd	t3,-88(a5)
    80004d64:	fa67b823          	sd	t1,-80(a5)
    80004d68:	fb17bc23          	sd	a7,-72(a5)
    80004d6c:	04070713          	addi	a4,a4,64
    80004d70:	fb07ece3          	bltu	a5,a6,80004d28 <memcpy+0x34>
    80004d74:	fbf60613          	addi	a2,a2,-65
    80004d78:	8219                	srli	a2,a2,0x6
    80004d7a:	00160793          	addi	a5,a2,1
    80004d7e:	079a                	slli	a5,a5,0x6
    80004d80:	061a                	slli	a2,a2,0x6
    80004d82:	95be                	add	a1,a1,a5
    80004d84:	00c687b3          	add	a5,a3,a2
    80004d88:	f907f9e3          	bgeu	a5,a6,80004d1a <memcpy+0x26>
    80004d8c:	6198                	ld	a4,0(a1)
    80004d8e:	07a1                	addi	a5,a5,8
    80004d90:	05a1                	addi	a1,a1,8
    80004d92:	fee7bc23          	sd	a4,-8(a5)
    80004d96:	ff07ebe3          	bltu	a5,a6,80004d8c <memcpy+0x98>
    80004d9a:	8082                	ret
    80004d9c:	8082                	ret
    80004d9e:	87aa                	mv	a5,a0
    80004da0:	b7e5                	j	80004d88 <memcpy+0x94>

0000000080004da2 <memset>:
    80004da2:	00c567b3          	or	a5,a0,a2
    80004da6:	8b9d                	andi	a5,a5,7
    80004da8:	962a                	add	a2,a2,a0
    80004daa:	0ff5f593          	zext.b	a1,a1
    80004dae:	cb91                	beqz	a5,80004dc2 <memset+0x20>
    80004db0:	87aa                	mv	a5,a0
    80004db2:	02c57a63          	bgeu	a0,a2,80004de6 <memset+0x44>
    80004db6:	0785                	addi	a5,a5,1
    80004db8:	feb78fa3          	sb	a1,-1(a5)
    80004dbc:	fef61de3          	bne	a2,a5,80004db6 <memset+0x14>
    80004dc0:	8082                	ret
    80004dc2:	00859793          	slli	a5,a1,0x8
    80004dc6:	8fcd                	or	a5,a5,a1
    80004dc8:	01079593          	slli	a1,a5,0x10
    80004dcc:	8fcd                	or	a5,a5,a1
    80004dce:	02079713          	slli	a4,a5,0x20
    80004dd2:	8fd9                	or	a5,a5,a4
    80004dd4:	fec576e3          	bgeu	a0,a2,80004dc0 <memset+0x1e>
    80004dd8:	872a                	mv	a4,a0
    80004dda:	0721                	addi	a4,a4,8
    80004ddc:	fef73c23          	sd	a5,-8(a4)
    80004de0:	fec76de3          	bltu	a4,a2,80004dda <memset+0x38>
    80004de4:	8082                	ret
    80004de6:	8082                	ret

0000000080004de8 <_init>:
    80004de8:	7171                	addi	sp,sp,-176
    80004dea:	a7818793          	addi	a5,gp,-1416 # 80005208 <_tdata_begin>
    80004dee:	e152                	sd	s4,128(sp)
    80004df0:	a7818a13          	addi	s4,gp,-1416 # 80005208 <_tdata_begin>
    80004df4:	e54e                	sd	s3,136(sp)
    80004df6:	40fa09b3          	sub	s3,s4,a5
    80004dfa:	ed26                	sd	s1,152(sp)
    80004dfc:	e94a                	sd	s2,144(sp)
    80004dfe:	84aa                	mv	s1,a0
    80004e00:	892e                	mv	s2,a1
    80004e02:	8512                	mv	a0,tp
    80004e04:	85be                	mv	a1,a5
    80004e06:	864e                	mv	a2,s3
    80004e08:	f506                	sd	ra,168(sp)
    80004e0a:	f122                	sd	s0,160(sp)
    80004e0c:	fcd6                	sd	s5,120(sp)
    80004e0e:	8a92                	mv	s5,tp
    80004e10:	ee5ff0ef          	jal	ra,80004cf4 <memcpy>
    80004e14:	b3418613          	addi	a2,gp,-1228 # 800052c4 <_tbss_end>
    80004e18:	41460633          	sub	a2,a2,s4
    80004e1c:	4581                	li	a1,0
    80004e1e:	013a8533          	add	a0,s5,s3
    80004e22:	f81ff0ef          	jal	ra,80004da2 <memset>
    80004e26:	85ca                	mv	a1,s2
    80004e28:	8526                	mv	a0,s1
    80004e2a:	e48ff0ef          	jal	ra,80004472 <thread_entry>
    80004e2e:	4581                	li	a1,0
    80004e30:	4501                	li	a0,0
    80004e32:	140000ef          	jal	ra,80004f72 <main>
    80004e36:	a5818913          	addi	s2,gp,-1448 # 800051e8 <counters>
    80004e3a:	00093683          	ld	a3,0(s2)
    80004e3e:	03f10413          	addi	s0,sp,63
    80004e42:	fc047413          	andi	s0,s0,-64
    80004e46:	84aa                	mv	s1,a0
    80004e48:	ea85                	bnez	a3,80004e78 <_init+0x90>
    80004e4a:	00893683          	ld	a3,8(s2)
    80004e4e:	e681                	bnez	a3,80004e56 <_init+0x6e>
    80004e50:	8526                	mv	a0,s1
    80004e52:	d59ff0ef          	jal	ra,80004baa <tohost_exit>
    80004e56:	89a2                	mv	s3,s0
    80004e58:	01893603          	ld	a2,24(s2)
    80004e5c:	854e                	mv	a0,s3
    80004e5e:	00000597          	auipc	a1,0x0
    80004e62:	21a58593          	addi	a1,a1,538 # 80005078 <main+0x106>
    80004e66:	e4fff0ef          	jal	ra,80004cb4 <sprintf>
    80004e6a:	99aa                	add	s3,s3,a0
    80004e6c:	ff3402e3          	beq	s0,s3,80004e50 <_init+0x68>
    80004e70:	8522                	mv	a0,s0
    80004e72:	d71ff0ef          	jal	ra,80004be2 <printstr>
    80004e76:	bfe9                	j	80004e50 <_init+0x68>
    80004e78:	01093603          	ld	a2,16(s2)
    80004e7c:	00000597          	auipc	a1,0x0
    80004e80:	1fc58593          	addi	a1,a1,508 # 80005078 <main+0x106>
    80004e84:	8522                	mv	a0,s0
    80004e86:	e2fff0ef          	jal	ra,80004cb4 <sprintf>
    80004e8a:	00893683          	ld	a3,8(s2)
    80004e8e:	00a409b3          	add	s3,s0,a0
    80004e92:	dee9                	beqz	a3,80004e6c <_init+0x84>
    80004e94:	b7d1                	j	80004e58 <_init+0x70>

0000000080004e96 <strlen>:
    80004e96:	00054783          	lbu	a5,0(a0)
    80004e9a:	cb89                	beqz	a5,80004eac <strlen+0x16>
    80004e9c:	87aa                	mv	a5,a0
    80004e9e:	0017c703          	lbu	a4,1(a5)
    80004ea2:	0785                	addi	a5,a5,1
    80004ea4:	ff6d                	bnez	a4,80004e9e <strlen+0x8>
    80004ea6:	40a78533          	sub	a0,a5,a0
    80004eaa:	8082                	ret
    80004eac:	4501                	li	a0,0
    80004eae:	8082                	ret

0000000080004eb0 <strnlen>:
    80004eb0:	00b506b3          	add	a3,a0,a1
    80004eb4:	87aa                	mv	a5,a0
    80004eb6:	e589                	bnez	a1,80004ec0 <strnlen+0x10>
    80004eb8:	a829                	j	80004ed2 <strnlen+0x22>
    80004eba:	0785                	addi	a5,a5,1
    80004ebc:	00f68863          	beq	a3,a5,80004ecc <strnlen+0x1c>
    80004ec0:	0007c703          	lbu	a4,0(a5)
    80004ec4:	fb7d                	bnez	a4,80004eba <strnlen+0xa>
    80004ec6:	40a78533          	sub	a0,a5,a0
    80004eca:	8082                	ret
    80004ecc:	40a68533          	sub	a0,a3,a0
    80004ed0:	8082                	ret
    80004ed2:	4501                	li	a0,0
    80004ed4:	8082                	ret

0000000080004ed6 <strcmp>:
    80004ed6:	00054783          	lbu	a5,0(a0)
    80004eda:	0585                	addi	a1,a1,1
    80004edc:	0505                	addi	a0,a0,1
    80004ede:	fff5c703          	lbu	a4,-1(a1)
    80004ee2:	c799                	beqz	a5,80004ef0 <strcmp+0x1a>
    80004ee4:	fee789e3          	beq	a5,a4,80004ed6 <strcmp>
    80004ee8:	0007851b          	sext.w	a0,a5
    80004eec:	9d19                	subw	a0,a0,a4
    80004eee:	8082                	ret
    80004ef0:	4501                	li	a0,0
    80004ef2:	bfed                	j	80004eec <strcmp+0x16>

0000000080004ef4 <strcpy>:
    80004ef4:	87aa                	mv	a5,a0
    80004ef6:	0005c703          	lbu	a4,0(a1)
    80004efa:	0785                	addi	a5,a5,1
    80004efc:	0585                	addi	a1,a1,1
    80004efe:	fee78fa3          	sb	a4,-1(a5)
    80004f02:	fb75                	bnez	a4,80004ef6 <strcpy+0x2>
    80004f04:	8082                	ret

0000000080004f06 <atol>:
    80004f06:	00054703          	lbu	a4,0(a0)
    80004f0a:	02000693          	li	a3,32
    80004f0e:	87aa                	mv	a5,a0
    80004f10:	00d71763          	bne	a4,a3,80004f1e <atol+0x18>
    80004f14:	0017c703          	lbu	a4,1(a5)
    80004f18:	0785                	addi	a5,a5,1
    80004f1a:	fed70de3          	beq	a4,a3,80004f14 <atol+0xe>
    80004f1e:	02d00693          	li	a3,45
    80004f22:	04d70163          	beq	a4,a3,80004f64 <atol+0x5e>
    80004f26:	02b00693          	li	a3,43
    80004f2a:	02d70663          	beq	a4,a3,80004f56 <atol+0x50>
    80004f2e:	0007c683          	lbu	a3,0(a5)
    80004f32:	4581                	li	a1,0
    80004f34:	c695                	beqz	a3,80004f60 <atol+0x5a>
    80004f36:	4501                	li	a0,0
    80004f38:	0785                	addi	a5,a5,1
    80004f3a:	fd06861b          	addiw	a2,a3,-48
    80004f3e:	00251713          	slli	a4,a0,0x2
    80004f42:	0007c683          	lbu	a3,0(a5)
    80004f46:	953a                	add	a0,a0,a4
    80004f48:	0506                	slli	a0,a0,0x1
    80004f4a:	9532                	add	a0,a0,a2
    80004f4c:	f6f5                	bnez	a3,80004f38 <atol+0x32>
    80004f4e:	c991                	beqz	a1,80004f62 <atol+0x5c>
    80004f50:	40a00533          	neg	a0,a0
    80004f54:	8082                	ret
    80004f56:	0017c683          	lbu	a3,1(a5)
    80004f5a:	4581                	li	a1,0
    80004f5c:	0785                	addi	a5,a5,1
    80004f5e:	fee1                	bnez	a3,80004f36 <atol+0x30>
    80004f60:	4501                	li	a0,0
    80004f62:	8082                	ret
    80004f64:	0017c683          	lbu	a3,1(a5)
    80004f68:	4585                	li	a1,1
    80004f6a:	0785                	addi	a5,a5,1
    80004f6c:	f6e9                	bnez	a3,80004f36 <atol+0x30>
    80004f6e:	4501                	li	a0,0
    80004f70:	bfcd                	j	80004f62 <atol+0x5c>

Disassembly of section .text.startup:

0000000080004f72 <main>:
    80004f72:	1141                	addi	sp,sp,-16
    80004f74:	00000517          	auipc	a0,0x0
    80004f78:	0ec50513          	addi	a0,a0,236 # 80005060 <main+0xee>
    80004f7c:	e406                	sd	ra,8(sp)
    80004f7e:	c65ff0ef          	jal	ra,80004be2 <printstr>
    80004f82:	60a2                	ld	ra,8(sp)
    80004f84:	557d                	li	a0,-1
    80004f86:	0141                	addi	sp,sp,16
    80004f88:	8082                	ret
